
obj/net/ns:     file format elf32-i386


Disassembly of section .text:

00800020 <_start>:
// starts us running when we are initially loaded into a new environment.
.text
.globl _start
_start:
	// See if we were started with arguments on the stack
	cmpl $USTACKTOP, %esp
  800020:	81 fc 00 e0 bf ee    	cmp    $0xeebfe000,%esp
	jne args_exist
  800026:	75 04                	jne    80002c <args_exist>

	// If not, push dummy argc/argv arguments.
	// This happens when we are loaded by the kernel,
	// because the kernel does not know about passing arguments.
	pushl $0
  800028:	6a 00                	push   $0x0
	pushl $0
  80002a:	6a 00                	push   $0x0

0080002c <args_exist>:

args_exist:
	call libmain
  80002c:	e8 50 e3 00 00       	call   80e381 <libmain>
1:	jmp 1b
  800031:	eb fe                	jmp    800031 <args_exist+0x5>

00800033 <tcpip_init_done>:
		panic("cannot create timer thread: %s", e2s(r));
}

static void
tcpip_init_done(void *arg)
{
  800033:	55                   	push   %ebp
  800034:	89 e5                	mov    %esp,%ebp
  800036:	83 ec 14             	sub    $0x14,%esp
  800039:	8b 45 08             	mov    0x8(%ebp),%eax
	uint32_t *done = arg;
	*done = 1;
  80003c:	c7 00 01 00 00 00    	movl   $0x1,(%eax)
	thread_wakeup(done);
  800042:	50                   	push   %eax
  800043:	e8 74 a4 00 00       	call   80a4bc <thread_wakeup>
  800048:	83 c4 10             	add    $0x10,%esp
}
  80004b:	c9                   	leave  
  80004c:	c3                   	ret    

0080004d <start_timer>:
	}
}

static void
start_timer(struct timer_thread *t, void (*func)(void), const char *name, int msec)
{
  80004d:	55                   	push   %ebp
  80004e:	89 e5                	mov    %esp,%ebp
  800050:	53                   	push   %ebx
  800051:	83 ec 04             	sub    $0x4,%esp
	t->msec = msec;
  800054:	8b 5d 08             	mov    0x8(%ebp),%ebx
  800057:	89 18                	mov    %ebx,(%eax)
	t->func = func;
  800059:	89 50 04             	mov    %edx,0x4(%eax)
	t->name = name;
  80005c:	89 48 08             	mov    %ecx,0x8(%eax)
	int r = thread_create(0, name, &net_timer, (uint32_t)t);
  80005f:	50                   	push   %eax
  800060:	68 94 00 80 00       	push   $0x800094
  800065:	51                   	push   %ecx
  800066:	6a 00                	push   $0x0
  800068:	e8 bd a4 00 00       	call   80a52a <thread_create>
	if (r < 0)
  80006d:	83 c4 10             	add    $0x10,%esp
  800070:	85 c0                	test   %eax,%eax
  800072:	79 1b                	jns    80008f <start_timer+0x42>
		panic("cannot create timer thread: %s", e2s(r));
  800074:	83 ec 0c             	sub    $0xc,%esp
  800077:	50                   	push   %eax
  800078:	e8 dc a7 00 00       	call   80a859 <e2s>
  80007d:	50                   	push   %eax
  80007e:	68 80 0c 81 00       	push   $0x810c80
  800083:	6a 7a                	push   $0x7a
  800085:	68 b5 0d 81 00       	push   $0x810db5
  80008a:	e8 52 e3 00 00       	call   80e3e1 <_panic>
}
  80008f:	8b 5d fc             	mov    -0x4(%ebp),%ebx
  800092:	c9                   	leave  
  800093:	c3                   	ret    

00800094 <net_timer>:
	netif_set_up(nif);
}

static void __attribute__((noreturn))
net_timer(uint32_t arg)
{
  800094:	55                   	push   %ebp
  800095:	89 e5                	mov    %esp,%ebp
  800097:	56                   	push   %esi
  800098:	53                   	push   %ebx
	struct timer_thread *t = (struct timer_thread *) arg;
  800099:	8b 75 08             	mov    0x8(%ebp),%esi

	for (;;) {
		uint32_t cur = sys_time_msec();
  80009c:	e8 9a ef 00 00       	call   80f03b <sys_time_msec>
  8000a1:	89 c3                	mov    %eax,%ebx

		lwip_core_lock();
  8000a3:	e8 db a3 00 00       	call   80a483 <lwip_core_lock>
		t->func();
  8000a8:	ff 56 04             	call   *0x4(%esi)
		lwip_core_unlock();
  8000ab:	e8 d8 a3 00 00       	call   80a488 <lwip_core_unlock>

		thread_wait(0, 0, cur + t->msec);
  8000b0:	83 ec 04             	sub    $0x4,%esp
  8000b3:	03 1e                	add    (%esi),%ebx
  8000b5:	53                   	push   %ebx
  8000b6:	6a 00                	push   $0x0
  8000b8:	6a 00                	push   $0x0
  8000ba:	e8 14 a6 00 00       	call   80a6d3 <thread_wait>
	}
  8000bf:	83 c4 10             	add    $0x10,%esp
  8000c2:	eb d8                	jmp    80009c <net_timer+0x8>

008000c4 <serve_thread>:
	uint32_t whom;
	union Nsipc *req;
};

static void
serve_thread(uint32_t a) {
  8000c4:	55                   	push   %ebp
  8000c5:	89 e5                	mov    %esp,%ebp
  8000c7:	57                   	push   %edi
  8000c8:	56                   	push   %esi
  8000c9:	53                   	push   %ebx
  8000ca:	83 ec 7c             	sub    $0x7c,%esp
  8000cd:	8b 5d 08             	mov    0x8(%ebp),%ebx
	struct st_args *args = (struct st_args *)a;
	union Nsipc *req = args->req;
  8000d0:	8b 73 08             	mov    0x8(%ebx),%esi
	int r;

	switch (args->reqno) {
  8000d3:	83 3b 0a             	cmpl   $0xa,(%ebx)
  8000d6:	0f 87 0b 01 00 00    	ja     8001e7 <serve_thread+0x123>
  8000dc:	8b 03                	mov    (%ebx),%eax
  8000de:	ff 24 85 60 0e 81 00 	jmp    *0x810e60(,%eax,4)
	case NSREQ_ACCEPT:
	{
		struct Nsret_accept ret;
		ret.ret_addrlen = req->accept.req_addrlen;
  8000e5:	8b 46 04             	mov    0x4(%esi),%eax
  8000e8:	89 45 94             	mov    %eax,-0x6c(%ebp)
		r = lwip_accept(req->accept.req_s, &ret.ret_addr,
  8000eb:	83 ec 04             	sub    $0x4,%esp
  8000ee:	8d 45 94             	lea    -0x6c(%ebp),%eax
  8000f1:	50                   	push   %eax
  8000f2:	8d 45 84             	lea    -0x7c(%ebp),%eax
  8000f5:	50                   	push   %eax
  8000f6:	ff 36                	pushl  (%esi)
  8000f8:	e8 af 0d 00 00       	call   800eac <lwip_accept>
  8000fd:	89 c7                	mov    %eax,%edi
				&ret.ret_addrlen);
		memmove(req, &ret, sizeof ret);
  8000ff:	83 c4 0c             	add    $0xc,%esp
  800102:	6a 14                	push   $0x14
  800104:	8d 45 84             	lea    -0x7c(%ebp),%eax
  800107:	50                   	push   %eax
  800108:	56                   	push   %esi
  800109:	e8 c5 ea 00 00       	call   80ebd3 <memmove>
  80010e:	83 c4 10             	add    $0x10,%esp
  800111:	e9 ec 00 00 00       	jmp    800202 <serve_thread+0x13e>
		break;
	}
	case NSREQ_BIND:
		r = lwip_bind(req->bind.req_s, &req->bind.req_name,
  800116:	83 ec 04             	sub    $0x4,%esp
  800119:	ff 76 14             	pushl  0x14(%esi)
  80011c:	8d 46 04             	lea    0x4(%esi),%eax
  80011f:	50                   	push   %eax
  800120:	ff 36                	pushl  (%esi)
  800122:	e8 34 0f 00 00       	call   80105b <lwip_bind>
  800127:	89 c7                	mov    %eax,%edi
			      req->bind.req_namelen);
		break;
  800129:	83 c4 10             	add    $0x10,%esp
  80012c:	e9 d1 00 00 00       	jmp    800202 <serve_thread+0x13e>
	case NSREQ_SHUTDOWN:
		r = lwip_shutdown(req->shutdown.req_s, req->shutdown.req_how);
  800131:	83 ec 08             	sub    $0x8,%esp
  800134:	ff 76 04             	pushl  0x4(%esi)
  800137:	ff 36                	pushl  (%esi)
  800139:	e8 2b 1a 00 00       	call   801b69 <lwip_shutdown>
  80013e:	89 c7                	mov    %eax,%edi
		break;
  800140:	83 c4 10             	add    $0x10,%esp
  800143:	e9 ba 00 00 00       	jmp    800202 <serve_thread+0x13e>
	case NSREQ_CLOSE:
		r = lwip_close(req->close.req_s);
  800148:	83 ec 0c             	sub    $0xc,%esp
  80014b:	ff 36                	pushl  (%esi)
  80014d:	e8 bf 0f 00 00       	call   801111 <lwip_close>
  800152:	89 c7                	mov    %eax,%edi
		break;
  800154:	83 c4 10             	add    $0x10,%esp
  800157:	e9 a6 00 00 00       	jmp    800202 <serve_thread+0x13e>
	case NSREQ_CONNECT:
		r = lwip_connect(req->connect.req_s, &req->connect.req_name,
  80015c:	83 ec 04             	sub    $0x4,%esp
  80015f:	ff 76 14             	pushl  0x14(%esi)
  800162:	8d 46 04             	lea    0x4(%esi),%eax
  800165:	50                   	push   %eax
  800166:	ff 36                	pushl  (%esi)
  800168:	e8 2d 10 00 00       	call   80119a <lwip_connect>
  80016d:	89 c7                	mov    %eax,%edi
				 req->connect.req_namelen);
		break;
  80016f:	83 c4 10             	add    $0x10,%esp
  800172:	e9 8b 00 00 00       	jmp    800202 <serve_thread+0x13e>
	case NSREQ_LISTEN:
		r = lwip_listen(req->listen.req_s, req->listen.req_backlog);
  800177:	83 ec 08             	sub    $0x8,%esp
  80017a:	ff 76 04             	pushl  0x4(%esi)
  80017d:	ff 36                	pushl  (%esi)
  80017f:	e8 cc 10 00 00       	call   801250 <lwip_listen>
  800184:	89 c7                	mov    %eax,%edi
		break;
  800186:	83 c4 10             	add    $0x10,%esp
  800189:	eb 77                	jmp    800202 <serve_thread+0x13e>
	case NSREQ_RECV:
		// Note that we read the request fields before we
		// overwrite it with the response data.
		r = lwip_recv(req->recv.req_s, req->recvRet.ret_buf,
  80018b:	ff 76 08             	pushl  0x8(%esi)
  80018e:	ff 76 04             	pushl  0x4(%esi)
  800191:	56                   	push   %esi
  800192:	ff 36                	pushl  (%esi)
  800194:	e8 8a 13 00 00       	call   801523 <lwip_recv>
  800199:	89 c7                	mov    %eax,%edi
			      req->recv.req_len, req->recv.req_flags);
		break;
  80019b:	83 c4 10             	add    $0x10,%esp
  80019e:	eb 62                	jmp    800202 <serve_thread+0x13e>
	case NSREQ_SEND:
		r = lwip_send(req->send.req_s, &req->send.req_buf,
  8001a0:	ff 76 08             	pushl  0x8(%esi)
  8001a3:	ff 76 04             	pushl  0x4(%esi)
  8001a6:	8d 46 0c             	lea    0xc(%esi),%eax
  8001a9:	50                   	push   %eax
  8001aa:	ff 36                	pushl  (%esi)
  8001ac:	e8 df 14 00 00       	call   801690 <lwip_send>
  8001b1:	89 c7                	mov    %eax,%edi
			      req->send.req_size, req->send.req_flags);
		break;
  8001b3:	83 c4 10             	add    $0x10,%esp
  8001b6:	eb 4a                	jmp    800202 <serve_thread+0x13e>
	case NSREQ_SOCKET:
		r = lwip_socket(req->socket.req_domain, req->socket.req_type,
  8001b8:	83 ec 04             	sub    $0x4,%esp
  8001bb:	ff 76 08             	pushl  0x8(%esi)
  8001be:	ff 76 04             	pushl  0x4(%esi)
  8001c1:	ff 36                	pushl  (%esi)
  8001c3:	e8 5b 15 00 00       	call   801723 <lwip_socket>
  8001c8:	89 c7                	mov    %eax,%edi
				req->socket.req_protocol);
		break;
  8001ca:	83 c4 10             	add    $0x10,%esp
  8001cd:	eb 33                	jmp    800202 <serve_thread+0x13e>
	case NSREQ_INPUT:
		jif_input(&nif, (void *)&req->pkt);
  8001cf:	83 ec 08             	sub    $0x8,%esp
  8001d2:	56                   	push   %esi
  8001d3:	68 40 b3 b3 00       	push   $0xb3b340
  8001d8:	e8 6b a7 00 00       	call   80a948 <jif_input>
		r = 0;
		break;
  8001dd:	83 c4 10             	add    $0x10,%esp
		r = lwip_socket(req->socket.req_domain, req->socket.req_type,
				req->socket.req_protocol);
		break;
	case NSREQ_INPUT:
		jif_input(&nif, (void *)&req->pkt);
		r = 0;
  8001e0:	bf 00 00 00 00       	mov    $0x0,%edi
		break;
  8001e5:	eb 3d                	jmp    800224 <serve_thread+0x160>
	default:
		cprintf("Invalid request code %d from %08x\n", args->whom, args->req);
  8001e7:	83 ec 04             	sub    $0x4,%esp
  8001ea:	56                   	push   %esi
  8001eb:	ff 73 04             	pushl  0x4(%ebx)
  8001ee:	68 a0 0c 81 00       	push   $0x810ca0
  8001f3:	e8 c2 e2 00 00       	call   80e4ba <cprintf>
		r = -E_INVAL;
		break;
  8001f8:	83 c4 10             	add    $0x10,%esp
		jif_input(&nif, (void *)&req->pkt);
		r = 0;
		break;
	default:
		cprintf("Invalid request code %d from %08x\n", args->whom, args->req);
		r = -E_INVAL;
  8001fb:	bf fd ff ff ff       	mov    $0xfffffffd,%edi
		break;
  800200:	eb 22                	jmp    800224 <serve_thread+0x160>
	}

	if (r == -1) {
  800202:	83 ff ff             	cmp    $0xffffffff,%edi
  800205:	75 1d                	jne    800224 <serve_thread+0x160>
		char buf[100];
		snprintf(buf, sizeof buf, "ns req type %d", args->reqno);
  800207:	ff 33                	pushl  (%ebx)
  800209:	68 c0 0d 81 00       	push   $0x810dc0
  80020e:	6a 64                	push   $0x64
  800210:	8d 75 84             	lea    -0x7c(%ebp),%esi
  800213:	56                   	push   %esi
  800214:	e8 d5 e7 00 00       	call   80e9ee <snprintf>
		perror(buf);
  800219:	89 34 24             	mov    %esi,(%esp)
  80021c:	e8 14 a6 00 00       	call   80a835 <perror>
  800221:	83 c4 10             	add    $0x10,%esp
	}

	if (args->reqno != NSREQ_INPUT)
  800224:	83 3b 0a             	cmpl   $0xa,(%ebx)
  800227:	74 10                	je     800239 <serve_thread+0x175>
		ipc_send(args->whom, r, 0, 0);
  800229:	6a 00                	push   $0x0
  80022b:	6a 00                	push   $0x0
  80022d:	57                   	push   %edi
  80022e:	ff 73 04             	pushl  0x4(%ebx)
  800231:	e8 13 f2 00 00       	call   80f449 <ipc_send>
  800236:	83 c4 10             	add    $0x10,%esp

	put_buffer(args->req);
  800239:	8b 53 08             	mov    0x8(%ebx),%edx
	return va;
}

static void
put_buffer(void *va) {
	int i = ((uint32_t)va - REQVA) / PGSIZE;
  80023c:	8d 82 00 50 01 f0    	lea    -0xffeb000(%edx),%eax
  800242:	c1 e8 0c             	shr    $0xc,%eax
	buse[i] = 0;
  800245:	c6 80 00 50 81 00 00 	movb   $0x0,0x815000(%eax)

	if (args->reqno != NSREQ_INPUT)
		ipc_send(args->whom, r, 0, 0);

	put_buffer(args->req);
	sys_page_unmap(0, (void*) args->req);
  80024c:	83 ec 08             	sub    $0x8,%esp
  80024f:	52                   	push   %edx
  800250:	6a 00                	push   $0x0
  800252:	e8 78 ec 00 00       	call   80eecf <sys_page_unmap>
	free(args);
  800257:	89 1c 24             	mov    %ebx,(%esp)
  80025a:	e8 1d ff 00 00       	call   81017c <free>
}
  80025f:	8d 65 f4             	lea    -0xc(%ebp),%esp
  800262:	5b                   	pop    %ebx
  800263:	5e                   	pop    %esi
  800264:	5f                   	pop    %edi
  800265:	5d                   	pop    %ebp
  800266:	c3                   	ret    

00800267 <serve_init>:
	thread_wakeup(done);
}

void
serve_init(uint32_t ipaddr, uint32_t netmask, uint32_t gw)
{
  800267:	55                   	push   %ebp
  800268:	89 e5                	mov    %esp,%ebp
  80026a:	56                   	push   %esi
  80026b:	53                   	push   %ebx
  80026c:	83 ec 10             	sub    $0x10,%esp
  80026f:	8b 75 08             	mov    0x8(%ebp),%esi
	int r;
	lwip_core_lock();
  800272:	e8 0c a2 00 00       	call   80a483 <lwip_core_lock>

	uint32_t done = 0;
  800277:	c7 45 f4 00 00 00 00 	movl   $0x0,-0xc(%ebp)
	tcpip_init(&tcpip_init_done, &done);
  80027e:	83 ec 08             	sub    $0x8,%esp
  800281:	8d 5d f4             	lea    -0xc(%ebp),%ebx
  800284:	53                   	push   %ebx
  800285:	68 33 00 80 00       	push   $0x800033
  80028a:	e8 98 21 00 00       	call   802427 <tcpip_init>
	lwip_core_unlock();
  80028f:	e8 f4 a1 00 00       	call   80a488 <lwip_core_unlock>
	thread_wait(&done, 0, (uint32_t)~0);
  800294:	83 c4 0c             	add    $0xc,%esp
  800297:	6a ff                	push   $0xffffffff
  800299:	6a 00                	push   $0x0
  80029b:	53                   	push   %ebx
  80029c:	e8 32 a4 00 00       	call   80a6d3 <thread_wait>
	lwip_core_lock();
  8002a1:	e8 dd a1 00 00       	call   80a483 <lwip_core_lock>
static void
lwip_init(struct netif *nif, void *if_state,
	  uint32_t init_addr, uint32_t init_mask, uint32_t init_gw)
{
	struct ip_addr ipaddr, netmask, gateway;
	ipaddr.addr  = init_addr;
  8002a6:	89 75 e8             	mov    %esi,-0x18(%ebp)
	netmask.addr = init_mask;
  8002a9:	8b 45 0c             	mov    0xc(%ebp),%eax
  8002ac:	89 45 ec             	mov    %eax,-0x14(%ebp)
	gateway.addr = init_gw;
  8002af:	8b 45 10             	mov    0x10(%ebp),%eax
  8002b2:	89 45 f0             	mov    %eax,-0x10(%ebp)

	if (0 == netif_add(nif, &ipaddr, &netmask, &gateway,
  8002b5:	83 c4 0c             	add    $0xc,%esp
  8002b8:	68 d6 64 80 00       	push   $0x8064d6
  8002bd:	68 3c aa 80 00       	push   $0x80aa3c
  8002c2:	68 14 50 81 00       	push   $0x815014
  8002c7:	8d 45 f0             	lea    -0x10(%ebp),%eax
  8002ca:	50                   	push   %eax
  8002cb:	8d 45 ec             	lea    -0x14(%ebp),%eax
  8002ce:	50                   	push   %eax
  8002cf:	8d 45 e8             	lea    -0x18(%ebp),%eax
  8002d2:	50                   	push   %eax
  8002d3:	68 40 b3 b3 00       	push   $0xb3b340
  8002d8:	e8 27 43 00 00       	call   804604 <netif_add>
  8002dd:	83 c4 20             	add    $0x20,%esp
  8002e0:	85 c0                	test   %eax,%eax
  8002e2:	75 14                	jne    8002f8 <serve_init+0x91>
			   if_state,
			   jif_init,
			   ip_input))
		panic("lwip_init: error in netif_add\n");
  8002e4:	83 ec 04             	sub    $0x4,%esp
  8002e7:	68 c4 0c 81 00       	push   $0x810cc4
  8002ec:	6a 5c                	push   $0x5c
  8002ee:	68 b5 0d 81 00       	push   $0x810db5
  8002f3:	e8 e9 e0 00 00       	call   80e3e1 <_panic>

	netif_set_default(nif);
  8002f8:	83 ec 0c             	sub    $0xc,%esp
  8002fb:	68 40 b3 b3 00       	push   $0xb3b340
  800300:	e8 b5 43 00 00       	call   8046ba <netif_set_default>
	netif_set_up(nif);
  800305:	c7 04 24 40 b3 b3 00 	movl   $0xb3b340,(%esp)
  80030c:	e8 b6 43 00 00       	call   8046c7 <netif_set_up>
	thread_wait(&done, 0, (uint32_t)~0);
	lwip_core_lock();

	lwip_init(&nif, &output_envid, ipaddr, netmask, gw);

	start_timer(&t_arp, &etharp_tmr, "arp timer", ARP_TMR_INTERVAL);
  800311:	c7 04 24 88 13 00 00 	movl   $0x1388,(%esp)
  800318:	b9 cf 0d 81 00       	mov    $0x810dcf,%ecx
  80031d:	ba fe 93 80 00       	mov    $0x8093fe,%edx
  800322:	b8 38 50 81 00       	mov    $0x815038,%eax
  800327:	e8 21 fd ff ff       	call   80004d <start_timer>
	start_timer(&t_tcpf, &tcp_fasttmr, "tcp f timer", TCP_FAST_INTERVAL);
  80032c:	c7 04 24 fa 00 00 00 	movl   $0xfa,(%esp)
  800333:	b9 d9 0d 81 00       	mov    $0x810dd9,%ecx
  800338:	ba ce 56 80 00       	mov    $0x8056ce,%edx
  80033d:	b8 2c 50 81 00       	mov    $0x81502c,%eax
  800342:	e8 06 fd ff ff       	call   80004d <start_timer>
	start_timer(&t_tcps, &tcp_slowtmr, "tcp s timer", TCP_SLOW_INTERVAL);
  800347:	c7 04 24 f4 01 00 00 	movl   $0x1f4,(%esp)
  80034e:	b9 e5 0d 81 00       	mov    $0x810de5,%ecx
  800353:	ba 74 5c 80 00       	mov    $0x805c74,%edx
  800358:	b8 20 50 81 00       	mov    $0x815020,%eax
  80035d:	e8 eb fc ff ff       	call   80004d <start_timer>

	struct in_addr ia = {ipaddr};
	cprintf("ns: %02x:%02x:%02x:%02x:%02x:%02x"
  800362:	89 34 24             	mov    %esi,(%esp)
  800365:	e8 48 72 00 00       	call   8075b2 <inet_ntoa>
  80036a:	50                   	push   %eax
  80036b:	0f b6 05 6a b3 b3 00 	movzbl 0xb3b36a,%eax
  800372:	50                   	push   %eax
  800373:	0f b6 05 69 b3 b3 00 	movzbl 0xb3b369,%eax
  80037a:	50                   	push   %eax
  80037b:	0f b6 05 68 b3 b3 00 	movzbl 0xb3b368,%eax
  800382:	50                   	push   %eax
  800383:	0f b6 05 67 b3 b3 00 	movzbl 0xb3b367,%eax
  80038a:	50                   	push   %eax
  80038b:	0f b6 05 66 b3 b3 00 	movzbl 0xb3b366,%eax
  800392:	50                   	push   %eax
  800393:	0f b6 05 65 b3 b3 00 	movzbl 0xb3b365,%eax
  80039a:	50                   	push   %eax
  80039b:	68 e4 0c 81 00       	push   $0x810ce4
  8003a0:	e8 15 e1 00 00       	call   80e4ba <cprintf>
		" bound to static IP %s\n",
		nif.hwaddr[0], nif.hwaddr[1], nif.hwaddr[2],
		nif.hwaddr[3], nif.hwaddr[4], nif.hwaddr[5],
		inet_ntoa(ia));

	lwip_core_unlock();
  8003a5:	83 c4 30             	add    $0x30,%esp
  8003a8:	e8 db a0 00 00       	call   80a488 <lwip_core_unlock>

	cprintf("NS: TCP/IP initialized.\n");
  8003ad:	83 ec 0c             	sub    $0xc,%esp
  8003b0:	68 f1 0d 81 00       	push   $0x810df1
  8003b5:	e8 00 e1 00 00       	call   80e4ba <cprintf>
  8003ba:	83 c4 10             	add    $0x10,%esp
}
  8003bd:	8d 65 f8             	lea    -0x8(%ebp),%esp
  8003c0:	5b                   	pop    %ebx
  8003c1:	5e                   	pop    %esi
  8003c2:	5d                   	pop    %ebp
  8003c3:	c3                   	ret    

008003c4 <serve>:
	sys_page_unmap(0, (void*) args->req);
	free(args);
}

void
serve(void) {
  8003c4:	55                   	push   %ebp
  8003c5:	89 e5                	mov    %esp,%ebp
  8003c7:	57                   	push   %edi
  8003c8:	56                   	push   %esi
  8003c9:	53                   	push   %ebx
  8003ca:	83 ec 2c             	sub    $0x2c,%esp
		for (i = 0; thread_wakeups_pending() && i < 32; ++i)
			thread_yield();

		perm = 0;
		va = get_buffer();
		reqno = ipc_recv((int32_t *) &whom, (void *) va, &perm);
  8003cd:	8d 7d e0             	lea    -0x20(%ebp),%edi

	while (1) {
		// ipc_recv will block the entire process, so we flush
		// all pending work from other threads.  We limit the
		// number of yields in case there's a rogue thread.
		for (i = 0; thread_wakeups_pending() && i < 32; ++i)
  8003d0:	bb 00 00 00 00       	mov    $0x0,%ebx
  8003d5:	eb 08                	jmp    8003df <serve+0x1b>
			thread_yield();
  8003d7:	e8 74 a2 00 00       	call   80a650 <thread_yield>

	while (1) {
		// ipc_recv will block the entire process, so we flush
		// all pending work from other threads.  We limit the
		// number of yields in case there's a rogue thread.
		for (i = 0; thread_wakeups_pending() && i < 32; ++i)
  8003dc:	83 c3 01             	add    $0x1,%ebx
  8003df:	e8 f7 a0 00 00       	call   80a4db <thread_wakeups_pending>
  8003e4:	85 c0                	test   %eax,%eax
  8003e6:	74 05                	je     8003ed <serve+0x29>
  8003e8:	83 fb 1f             	cmp    $0x1f,%ebx
  8003eb:	7e ea                	jle    8003d7 <serve+0x13>
			thread_yield();

		perm = 0;
  8003ed:	c7 45 e0 00 00 00 00 	movl   $0x0,-0x20(%ebp)
static void *
get_buffer(void) {
	void *va;

	int i;
	for (i = 0; i < QUEUE_SIZE; i++)
  8003f4:	b8 00 00 00 00       	mov    $0x0,%eax
		if (!buse[i]) break;
  8003f9:	80 b8 00 50 81 00 00 	cmpb   $0x0,0x815000(%eax)
  800400:	74 0a                	je     80040c <serve+0x48>
static void *
get_buffer(void) {
	void *va;

	int i;
	for (i = 0; i < QUEUE_SIZE; i++)
  800402:	83 c0 01             	add    $0x1,%eax
  800405:	83 f8 14             	cmp    $0x14,%eax
  800408:	75 ef                	jne    8003f9 <serve+0x35>
  80040a:	eb 05                	jmp    800411 <serve+0x4d>
		if (!buse[i]) break;

	if (i == QUEUE_SIZE) {
  80040c:	83 f8 14             	cmp    $0x14,%eax
  80040f:	75 14                	jne    800425 <serve+0x61>
		panic("NS: buffer overflow");
  800411:	83 ec 04             	sub    $0x4,%esp
  800414:	68 0a 0e 81 00       	push   $0x810e0a
  800419:	6a 3f                	push   $0x3f
  80041b:	68 b5 0d 81 00       	push   $0x810db5
  800420:	e8 bc df 00 00       	call   80e3e1 <_panic>
		return 0;
	}

	va = (void *)(REQVA + i * PGSIZE);
  800425:	8d 98 eb ff 00 00    	lea    0xffeb(%eax),%ebx
  80042b:	c1 e3 0c             	shl    $0xc,%ebx
	buse[i] = 1;
  80042e:	c6 80 00 50 81 00 01 	movb   $0x1,0x815000(%eax)
		for (i = 0; thread_wakeups_pending() && i < 32; ++i)
			thread_yield();

		perm = 0;
		va = get_buffer();
		reqno = ipc_recv((int32_t *) &whom, (void *) va, &perm);
  800435:	83 ec 04             	sub    $0x4,%esp
  800438:	57                   	push   %edi
  800439:	53                   	push   %ebx
  80043a:	8d 45 e4             	lea    -0x1c(%ebp),%eax
  80043d:	50                   	push   %eax
  80043e:	e8 9d ef 00 00       	call   80f3e0 <ipc_recv>
  800443:	89 c6                	mov    %eax,%esi
		if (debug) {
			cprintf("ns req %d from %08x\n", reqno, whom);
		}

		// first take care of requests that do not contain an argument page
		if (reqno == NSREQ_TIMER) {
  800445:	83 c4 10             	add    $0x10,%esp
  800448:	83 f8 0c             	cmp    $0xc,%eax
  80044b:	75 60                	jne    8004ad <serve+0xe9>
			process_timer(whom);
  80044d:	8b 45 e4             	mov    -0x1c(%ebp),%eax

static void
process_timer(envid_t envid) {
	uint32_t start, now, to;

	if (envid != timer_envid) {
  800450:	8b 35 1c 50 81 00    	mov    0x81501c,%esi
  800456:	39 c6                	cmp    %eax,%esi
  800458:	74 13                	je     80046d <serve+0xa9>
		cprintf("NS: received timer interrupt from envid %x not timer env\n", envid);
  80045a:	83 ec 08             	sub    $0x8,%esp
  80045d:	50                   	push   %eax
  80045e:	68 20 0d 81 00       	push   $0x810d20
  800463:	e8 52 e0 00 00       	call   80e4ba <cprintf>
  800468:	83 c4 10             	add    $0x10,%esp
  80046b:	eb 2b                	jmp    800498 <serve+0xd4>
		return;
	}

	start = sys_time_msec();
  80046d:	e8 c9 eb 00 00       	call   80f03b <sys_time_msec>
  800472:	89 45 d4             	mov    %eax,-0x2c(%ebp)
	thread_yield();
  800475:	e8 d6 a1 00 00       	call   80a650 <thread_yield>
	now = sys_time_msec();
  80047a:	e8 bc eb 00 00       	call   80f03b <sys_time_msec>

	to = TIMER_INTERVAL - (now - start);
	ipc_send(envid, to, 0, 0);
  80047f:	6a 00                	push   $0x0
  800481:	6a 00                	push   $0x0
  800483:	8b 55 d4             	mov    -0x2c(%ebp),%edx
  800486:	81 c2 fa 00 00 00    	add    $0xfa,%edx

	start = sys_time_msec();
	thread_yield();
	now = sys_time_msec();

	to = TIMER_INTERVAL - (now - start);
  80048c:	29 c2                	sub    %eax,%edx
	ipc_send(envid, to, 0, 0);
  80048e:	52                   	push   %edx
  80048f:	56                   	push   %esi
  800490:	e8 b4 ef 00 00       	call   80f449 <ipc_send>
  800495:	83 c4 10             	add    $0x10,%esp
	return va;
}

static void
put_buffer(void *va) {
	int i = ((uint32_t)va - REQVA) / PGSIZE;
  800498:	81 eb 00 b0 fe 0f    	sub    $0xffeb000,%ebx
  80049e:	c1 eb 0c             	shr    $0xc,%ebx
	buse[i] = 0;
  8004a1:	c6 83 00 50 81 00 00 	movb   $0x0,0x815000(%ebx)

		// first take care of requests that do not contain an argument page
		if (reqno == NSREQ_TIMER) {
			process_timer(whom);
			put_buffer(va);
			continue;
  8004a8:	e9 23 ff ff ff       	jmp    8003d0 <serve+0xc>
		}

		// All remaining requests must contain an argument page
		if (!(perm & PTE_P)) {
  8004ad:	f6 45 e0 01          	testb  $0x1,-0x20(%ebp)
  8004b1:	75 18                	jne    8004cb <serve+0x107>
			cprintf("Invalid request from %08x: no argument page\n", whom);
  8004b3:	83 ec 08             	sub    $0x8,%esp
  8004b6:	ff 75 e4             	pushl  -0x1c(%ebp)
  8004b9:	68 5c 0d 81 00       	push   $0x810d5c
  8004be:	e8 f7 df 00 00       	call   80e4ba <cprintf>
			continue; // just leave it hanging...
  8004c3:	83 c4 10             	add    $0x10,%esp
  8004c6:	e9 05 ff ff ff       	jmp    8003d0 <serve+0xc>
		}

		// Since some lwIP socket calls will block, create a thread and
		// process the rest of the request in the thread.
		struct st_args *args = malloc(sizeof(struct st_args));
  8004cb:	83 ec 0c             	sub    $0xc,%esp
  8004ce:	6a 0c                	push   $0xc
  8004d0:	e8 55 fd 00 00       	call   81022a <malloc>
		if (!args)
  8004d5:	83 c4 10             	add    $0x10,%esp
  8004d8:	85 c0                	test   %eax,%eax
  8004da:	75 17                	jne    8004f3 <serve+0x12f>
			panic("could not allocate thread args structure");
  8004dc:	83 ec 04             	sub    $0x4,%esp
  8004df:	68 8c 0d 81 00       	push   $0x810d8c
  8004e4:	68 27 01 00 00       	push   $0x127
  8004e9:	68 b5 0d 81 00       	push   $0x810db5
  8004ee:	e8 ee de 00 00       	call   80e3e1 <_panic>

		args->reqno = reqno;
  8004f3:	89 30                	mov    %esi,(%eax)
		args->whom = whom;
  8004f5:	8b 55 e4             	mov    -0x1c(%ebp),%edx
  8004f8:	89 50 04             	mov    %edx,0x4(%eax)
		args->req = va;
  8004fb:	89 58 08             	mov    %ebx,0x8(%eax)

		thread_create(0, "serve_thread", serve_thread, (uint32_t)args);
  8004fe:	50                   	push   %eax
  8004ff:	68 c4 00 80 00       	push   $0x8000c4
  800504:	68 1e 0e 81 00       	push   $0x810e1e
  800509:	6a 00                	push   $0x0
  80050b:	e8 1a a0 00 00       	call   80a52a <thread_create>
		thread_yield(); // let the thread created run
  800510:	e8 3b a1 00 00       	call   80a650 <thread_yield>
  800515:	83 c4 10             	add    $0x10,%esp
  800518:	e9 b3 fe ff ff       	jmp    8003d0 <serve+0xc>

0080051d <tmain>:
	}
}

static void
tmain(uint32_t arg) {
  80051d:	55                   	push   %ebp
  80051e:	89 e5                	mov    %esp,%ebp
  800520:	56                   	push   %esi
  800521:	53                   	push   %ebx
	serve_init(inet_addr(IP),
  800522:	83 ec 0c             	sub    $0xc,%esp
  800525:	68 2b 0e 81 00       	push   $0x810e2b
  80052a:	e8 4d 73 00 00       	call   80787c <inet_addr>
  80052f:	89 c6                	mov    %eax,%esi
  800531:	c7 04 24 34 0e 81 00 	movl   $0x810e34,(%esp)
  800538:	e8 3f 73 00 00       	call   80787c <inet_addr>
  80053d:	89 c3                	mov    %eax,%ebx
  80053f:	c7 04 24 42 0e 81 00 	movl   $0x810e42,(%esp)
  800546:	e8 31 73 00 00       	call   80787c <inet_addr>
  80054b:	83 c4 0c             	add    $0xc,%esp
  80054e:	56                   	push   %esi
  80054f:	53                   	push   %ebx
  800550:	50                   	push   %eax
  800551:	e8 11 fd ff ff       	call   800267 <serve_init>
		   inet_addr(MASK),
		   inet_addr(DEFAULT));
	serve();
  800556:	e8 69 fe ff ff       	call   8003c4 <serve>

0080055b <umain>:
}

void
umain(int argc, char **argv)
{
  80055b:	55                   	push   %ebp
  80055c:	89 e5                	mov    %esp,%ebp
  80055e:	53                   	push   %ebx
  80055f:	83 ec 04             	sub    $0x4,%esp
	envid_t ns_envid = sys_getenvid();
  800562:	e8 a5 e8 00 00       	call   80ee0c <sys_getenvid>
  800567:	89 c3                	mov    %eax,%ebx

	binaryname = "ns";
  800569:	c7 05 08 43 81 00 93 	movl   $0x813893,0x814308
  800570:	38 81 00 

	// fork off the timer thread which will send us periodic messages
	timer_envid = fork();
  800573:	e8 46 ec 00 00       	call   80f1be <fork>
  800578:	a3 1c 50 81 00       	mov    %eax,0x81501c
	if (timer_envid < 0)
  80057d:	85 c0                	test   %eax,%eax
  80057f:	79 17                	jns    800598 <umain+0x3d>
		panic("error forking");
  800581:	83 ec 04             	sub    $0x4,%esp
  800584:	68 4c 0e 81 00       	push   $0x810e4c
  800589:	68 44 01 00 00       	push   $0x144
  80058e:	68 b5 0d 81 00       	push   $0x810db5
  800593:	e8 49 de 00 00       	call   80e3e1 <_panic>
	else if (timer_envid == 0) {
  800598:	85 c0                	test   %eax,%eax
  80059a:	75 16                	jne    8005b2 <umain+0x57>
		timer(ns_envid, TIMER_INTERVAL);
  80059c:	83 ec 08             	sub    $0x8,%esp
  80059f:	68 fa 00 00 00       	push   $0xfa
  8005a4:	53                   	push   %ebx
  8005a5:	e8 9b 00 00 00       	call   800645 <timer>
		return;
  8005aa:	83 c4 10             	add    $0x10,%esp
  8005ad:	e9 8e 00 00 00       	jmp    800640 <umain+0xe5>
	}

	// fork off the input thread which will poll the NIC driver for input
	// packets
	input_envid = fork();
  8005b2:	e8 07 ec 00 00       	call   80f1be <fork>
  8005b7:	a3 18 50 81 00       	mov    %eax,0x815018
	if (input_envid < 0)
  8005bc:	85 c0                	test   %eax,%eax
  8005be:	79 17                	jns    8005d7 <umain+0x7c>
		panic("error forking");
  8005c0:	83 ec 04             	sub    $0x4,%esp
  8005c3:	68 4c 0e 81 00       	push   $0x810e4c
  8005c8:	68 4e 01 00 00       	push   $0x14e
  8005cd:	68 b5 0d 81 00       	push   $0x810db5
  8005d2:	e8 0a de 00 00       	call   80e3e1 <_panic>
	else if (input_envid == 0) {
  8005d7:	85 c0                	test   %eax,%eax
  8005d9:	75 0e                	jne    8005e9 <umain+0x8e>
		input(ns_envid);
  8005db:	83 ec 0c             	sub    $0xc,%esp
  8005de:	53                   	push   %ebx
  8005df:	e8 f4 00 00 00       	call   8006d8 <input>
		return;
  8005e4:	83 c4 10             	add    $0x10,%esp
  8005e7:	eb 57                	jmp    800640 <umain+0xe5>
	}

	// fork off the output thread that will send the packets to the NIC
	// driver
	output_envid = fork();
  8005e9:	e8 d0 eb 00 00       	call   80f1be <fork>
  8005ee:	a3 14 50 81 00       	mov    %eax,0x815014
	if (output_envid < 0)
  8005f3:	85 c0                	test   %eax,%eax
  8005f5:	79 17                	jns    80060e <umain+0xb3>
		panic("error forking");
  8005f7:	83 ec 04             	sub    $0x4,%esp
  8005fa:	68 4c 0e 81 00       	push   $0x810e4c
  8005ff:	68 58 01 00 00       	push   $0x158
  800604:	68 b5 0d 81 00       	push   $0x810db5
  800609:	e8 d3 dd 00 00       	call   80e3e1 <_panic>
	else if (output_envid == 0) {
  80060e:	85 c0                	test   %eax,%eax
  800610:	75 0e                	jne    800620 <umain+0xc5>
		output(ns_envid);
  800612:	83 ec 0c             	sub    $0xc,%esp
  800615:	53                   	push   %ebx
  800616:	e8 17 01 00 00       	call   800732 <output>
		return;
  80061b:	83 c4 10             	add    $0x10,%esp
  80061e:	eb 20                	jmp    800640 <umain+0xe5>
	}

	// lwIP requires a user threading library; start the library and jump
	// into a thread to continue initialization.
	thread_init();
  800620:	e8 68 9e 00 00       	call   80a48d <thread_init>
	thread_create(0, "main", tmain, 0);
  800625:	6a 00                	push   $0x0
  800627:	68 1d 05 80 00       	push   $0x80051d
  80062c:	68 5a 0e 81 00       	push   $0x810e5a
  800631:	6a 00                	push   $0x0
  800633:	e8 f2 9e 00 00       	call   80a52a <thread_create>
	thread_yield();
  800638:	e8 13 a0 00 00       	call   80a650 <thread_yield>
  80063d:	83 c4 10             	add    $0x10,%esp
	// never coming here!
}
  800640:	8b 5d fc             	mov    -0x4(%ebp),%ebx
  800643:	c9                   	leave  
  800644:	c3                   	ret    

00800645 <timer>:
#include "ns.h"

void
timer(envid_t ns_envid, uint32_t initial_to) {
  800645:	55                   	push   %ebp
  800646:	89 e5                	mov    %esp,%ebp
  800648:	57                   	push   %edi
  800649:	56                   	push   %esi
  80064a:	53                   	push   %ebx
  80064b:	83 ec 1c             	sub    $0x1c,%esp
  80064e:	8b 75 08             	mov    0x8(%ebp),%esi
	int r;
	uint32_t stop = sys_time_msec() + initial_to;
  800651:	e8 e5 e9 00 00       	call   80f03b <sys_time_msec>
  800656:	03 45 0c             	add    0xc(%ebp),%eax
  800659:	89 c3                	mov    %eax,%ebx

	binaryname = "ns_timer";
  80065b:	c7 05 08 43 81 00 8c 	movl   $0x810e8c,0x814308
  800662:	0e 81 00 

		ipc_send(ns_envid, NSREQ_TIMER, 0, 0);

		while (1) {
			uint32_t to, whom;
			to = ipc_recv((int32_t *) &whom, 0, 0);
  800665:	8d 7d e4             	lea    -0x1c(%ebp),%edi
  800668:	eb 05                	jmp    80066f <timer+0x2a>

	binaryname = "ns_timer";

	while (1) {
		while((r = sys_time_msec()) < stop && r >= 0) {
			sys_yield();
  80066a:	e8 bc e7 00 00       	call   80ee2b <sys_yield>
	uint32_t stop = sys_time_msec() + initial_to;

	binaryname = "ns_timer";

	while (1) {
		while((r = sys_time_msec()) < stop && r >= 0) {
  80066f:	e8 c7 e9 00 00       	call   80f03b <sys_time_msec>
  800674:	89 c2                	mov    %eax,%edx
  800676:	85 c0                	test   %eax,%eax
  800678:	78 04                	js     80067e <timer+0x39>
  80067a:	39 c3                	cmp    %eax,%ebx
  80067c:	77 ec                	ja     80066a <timer+0x25>
			sys_yield();
		}
		if (r < 0)
  80067e:	85 c0                	test   %eax,%eax
  800680:	79 12                	jns    800694 <timer+0x4f>
			panic("sys_time_msec: %e", r);
  800682:	52                   	push   %edx
  800683:	68 95 0e 81 00       	push   $0x810e95
  800688:	6a 0f                	push   $0xf
  80068a:	68 a7 0e 81 00       	push   $0x810ea7
  80068f:	e8 4d dd 00 00       	call   80e3e1 <_panic>

		ipc_send(ns_envid, NSREQ_TIMER, 0, 0);
  800694:	6a 00                	push   $0x0
  800696:	6a 00                	push   $0x0
  800698:	6a 0c                	push   $0xc
  80069a:	56                   	push   %esi
  80069b:	e8 a9 ed 00 00       	call   80f449 <ipc_send>
  8006a0:	83 c4 10             	add    $0x10,%esp

		while (1) {
			uint32_t to, whom;
			to = ipc_recv((int32_t *) &whom, 0, 0);
  8006a3:	83 ec 04             	sub    $0x4,%esp
  8006a6:	6a 00                	push   $0x0
  8006a8:	6a 00                	push   $0x0
  8006aa:	57                   	push   %edi
  8006ab:	e8 30 ed 00 00       	call   80f3e0 <ipc_recv>
  8006b0:	89 c3                	mov    %eax,%ebx

			if (whom != ns_envid) {
  8006b2:	8b 45 e4             	mov    -0x1c(%ebp),%eax
  8006b5:	83 c4 10             	add    $0x10,%esp
  8006b8:	39 c6                	cmp    %eax,%esi
  8006ba:	74 13                	je     8006cf <timer+0x8a>
				cprintf("NS TIMER: timer thread got IPC message from env %x not NS\n", whom);
  8006bc:	83 ec 08             	sub    $0x8,%esp
  8006bf:	50                   	push   %eax
  8006c0:	68 b4 0e 81 00       	push   $0x810eb4
  8006c5:	e8 f0 dd 00 00       	call   80e4ba <cprintf>
				continue;
  8006ca:	83 c4 10             	add    $0x10,%esp
  8006cd:	eb d4                	jmp    8006a3 <timer+0x5e>
			}

			stop = sys_time_msec() + to;
  8006cf:	e8 67 e9 00 00       	call   80f03b <sys_time_msec>
  8006d4:	01 c3                	add    %eax,%ebx
  8006d6:	eb 97                	jmp    80066f <timer+0x2a>

008006d8 <input>:

extern union Nsipc nsipcbuf;

void
input(envid_t ns_envid)
{
  8006d8:	55                   	push   %ebp
  8006d9:	89 e5                	mov    %esp,%ebp
  8006db:	53                   	push   %ebx
  8006dc:	83 ec 04             	sub    $0x4,%esp
  8006df:	8b 5d 08             	mov    0x8(%ebp),%ebx
	binaryname = "ns_input";
  8006e2:	c7 05 08 43 81 00 ef 	movl   $0x810eef,0x814308
  8006e9:	0e 81 00 
  8006ec:	eb 1c                	jmp    80070a <input+0x32>
        int r;
        while(1) {
 
                
                 while(( r = sys_recv((void *)RXTEP)) < 0) {
                       if(r != -E_IPC_NOT_RECV)
  8006ee:	83 f8 f9             	cmp    $0xfffffff9,%eax
  8006f1:	74 12                	je     800705 <input+0x2d>
                               panic("sys_recv fails %e\n", r);
  8006f3:	50                   	push   %eax
  8006f4:	68 f8 0e 81 00       	push   $0x810ef8
  8006f9:	6a 17                	push   $0x17
  8006fb:	68 0b 0f 81 00       	push   $0x810f0b
  800700:	e8 dc dc 00 00       	call   80e3e1 <_panic>
                       sys_yield();
  800705:	e8 21 e7 00 00       	call   80ee2b <sys_yield>
 
        int r;
        while(1) {
 
                
                 while(( r = sys_recv((void *)RXTEP)) < 0) {
  80070a:	83 ec 0c             	sub    $0xc,%esp
  80070d:	68 00 20 80 40       	push   $0x40802000
  800712:	e8 84 e9 00 00       	call   80f09b <sys_recv>
  800717:	83 c4 10             	add    $0x10,%esp
  80071a:	85 c0                	test   %eax,%eax
  80071c:	78 d0                	js     8006ee <input+0x16>
                       if(r != -E_IPC_NOT_RECV)
                               panic("sys_recv fails %e\n", r);
                       sys_yield();
               }
      
               ipc_send(ns_envid, NSREQ_INPUT, (void *)RXTEP, PTE_U | PTE_P); 
  80071e:	6a 05                	push   $0x5
  800720:	68 00 20 80 40       	push   $0x40802000
  800725:	6a 0a                	push   $0xa
  800727:	53                   	push   %ebx
  800728:	e8 1c ed 00 00       	call   80f449 <ipc_send>
        }
  80072d:	83 c4 10             	add    $0x10,%esp
  800730:	eb d8                	jmp    80070a <input+0x32>

00800732 <output>:

extern union Nsipc nsipcbuf;

void
output(envid_t ns_envid)
{
  800732:	55                   	push   %ebp
  800733:	89 e5                	mov    %esp,%ebp
  800735:	57                   	push   %edi
  800736:	56                   	push   %esi
  800737:	53                   	push   %ebx
  800738:	83 ec 1c             	sub    $0x1c,%esp
  80073b:	8b 7d 08             	mov    0x8(%ebp),%edi
	binaryname = "ns_output";
  80073e:	c7 05 08 43 81 00 17 	movl   $0x810f17,0x814308
  800745:	0f 81 00 
	//	- send the packet to the device driver
        envid_t from_envid;
        int perm;
        int r;
        while(1) {
                r = ipc_recv(&from_envid, (void *)TXTEP, &perm);
  800748:	8d 75 e0             	lea    -0x20(%ebp),%esi
  80074b:	8d 5d e4             	lea    -0x1c(%ebp),%ebx
  80074e:	83 ec 04             	sub    $0x4,%esp
  800751:	56                   	push   %esi
  800752:	68 00 20 40 40       	push   $0x40402000
  800757:	53                   	push   %ebx
  800758:	e8 83 ec 00 00       	call   80f3e0 <ipc_recv>
                if (r < 0)
  80075d:	83 c4 10             	add    $0x10,%esp
  800760:	85 c0                	test   %eax,%eax
  800762:	79 12                	jns    800776 <output+0x44>
                        panic("ipc_recv from net fails %e\n", r);
  800764:	50                   	push   %eax
  800765:	68 21 0f 81 00       	push   $0x810f21
  80076a:	6a 13                	push   $0x13
  80076c:	68 3d 0f 81 00       	push   $0x810f3d
  800771:	e8 6b dc 00 00       	call   80e3e1 <_panic>
                if (from_envid != ns_envid)
                        continue;
                if (r != NSREQ_OUTPUT)
  800776:	83 f8 0b             	cmp    $0xb,%eax
  800779:	75 d3                	jne    80074e <output+0x1c>
  80077b:	39 7d e4             	cmp    %edi,-0x1c(%ebp)
  80077e:	75 ce                	jne    80074e <output+0x1c>
  800780:	eb 1c                	jmp    80079e <output+0x6c>
                        continue;
                while((r = sys_transmit((void *)TXTEP) ) < 0) {
                        if(r != -E_IPC_NOT_RECV)
  800782:	83 f8 f9             	cmp    $0xfffffff9,%eax
  800785:	74 12                	je     800799 <output+0x67>
                                panic("sys_transit fails %e\n", r);
  800787:	50                   	push   %eax
  800788:	68 4a 0f 81 00       	push   $0x810f4a
  80078d:	6a 1a                	push   $0x1a
  80078f:	68 3d 0f 81 00       	push   $0x810f3d
  800794:	e8 48 dc 00 00       	call   80e3e1 <_panic>
                        sys_yield();
  800799:	e8 8d e6 00 00       	call   80ee2b <sys_yield>
                        panic("ipc_recv from net fails %e\n", r);
                if (from_envid != ns_envid)
                        continue;
                if (r != NSREQ_OUTPUT)
                        continue;
                while((r = sys_transmit((void *)TXTEP) ) < 0) {
  80079e:	83 ec 0c             	sub    $0xc,%esp
  8007a1:	68 00 20 40 40       	push   $0x40402000
  8007a6:	e8 af e8 00 00       	call   80f05a <sys_transmit>
  8007ab:	83 c4 10             	add    $0x10,%esp
  8007ae:	85 c0                	test   %eax,%eax
  8007b0:	78 d0                	js     800782 <output+0x50>
  8007b2:	eb 9a                	jmp    80074e <output+0x1c>

008007b4 <get_socket>:
 * @param s externally used socket index
 * @return struct lwip_socket for the socket or NULL if not found
 */
static struct lwip_socket *
get_socket(int s)
{
  8007b4:	55                   	push   %ebp
  8007b5:	89 e5                	mov    %esp,%ebp
  struct lwip_socket *sock;

  if ((s < 0) || (s >= NUM_SOCKETS)) {
  8007b7:	83 f8 1f             	cmp    $0x1f,%eax
  8007ba:	76 11                	jbe    8007cd <get_socket+0x19>
    LWIP_DEBUGF(SOCKETS_DEBUG, ("get_socket(%d): invalid\n", s));
    set_errno(EBADF);
  8007bc:	c7 05 20 b3 b3 00 09 	movl   $0x9,0xb3b320
  8007c3:	00 00 00 
    return NULL;
  8007c6:	b8 00 00 00 00       	mov    $0x0,%eax
  8007cb:	eb 30                	jmp    8007fd <get_socket+0x49>
  }

  sock = &sockets[s];
  8007cd:	8d 14 85 00 00 00 00 	lea    0x0(,%eax,4),%edx
  8007d4:	8d 0c 02             	lea    (%edx,%eax,1),%ecx
  8007d7:	8d 0c 8d c0 50 81 00 	lea    0x8150c0(,%ecx,4),%ecx

  if (!sock->conn) {
  8007de:	01 c2                	add    %eax,%edx
  8007e0:	83 3c 95 c0 50 81 00 	cmpl   $0x0,0x8150c0(,%edx,4)
  8007e7:	00 
  8007e8:	75 11                	jne    8007fb <get_socket+0x47>
    LWIP_DEBUGF(SOCKETS_DEBUG, ("get_socket(%d): not active\n", s));
    set_errno(EBADF);
  8007ea:	c7 05 20 b3 b3 00 09 	movl   $0x9,0xb3b320
  8007f1:	00 00 00 
    return NULL;
  8007f4:	b8 00 00 00 00       	mov    $0x0,%eax
  8007f9:	eb 02                	jmp    8007fd <get_socket+0x49>
  }

  return sock;
  8007fb:	89 c8                	mov    %ecx,%eax
}
  8007fd:	5d                   	pop    %ebp
  8007fe:	c3                   	ret    

008007ff <lwip_selscan>:
 * @param exceptset not yet implemented
 * @return number of sockets that had events (read+write)
 */
static int
lwip_selscan(int maxfdp1, fd_set *readset, fd_set *writeset, fd_set *exceptset)
{
  8007ff:	55                   	push   %ebp
  800800:	89 e5                	mov    %esp,%ebp
  800802:	57                   	push   %edi
  800803:	56                   	push   %esi
  800804:	53                   	push   %ebx
  800805:	83 ec 40             	sub    $0x40,%esp
  800808:	89 45 d0             	mov    %eax,-0x30(%ebp)
  80080b:	89 55 cc             	mov    %edx,-0x34(%ebp)
  80080e:	89 4d c8             	mov    %ecx,-0x38(%ebp)
  int i, nready = 0;
  fd_set lreadset, lwriteset, lexceptset;
  struct lwip_socket *p_sock;
  
  FD_ZERO(&lreadset);
  800811:	6a 04                	push   $0x4
  800813:	6a 00                	push   $0x0
  800815:	8d 45 e4             	lea    -0x1c(%ebp),%eax
  800818:	50                   	push   %eax
  800819:	e8 68 e3 00 00       	call   80eb86 <memset>
  FD_ZERO(&lwriteset);
  80081e:	83 c4 0c             	add    $0xc,%esp
  800821:	6a 04                	push   $0x4
  800823:	6a 00                	push   $0x0
  800825:	8d 45 e0             	lea    -0x20(%ebp),%eax
  800828:	50                   	push   %eax
  800829:	e8 58 e3 00 00       	call   80eb86 <memset>
  FD_ZERO(&lexceptset);
  80082e:	83 c4 0c             	add    $0xc,%esp
  800831:	6a 04                	push   $0x4
  800833:	6a 00                	push   $0x0
  800835:	8d 45 dc             	lea    -0x24(%ebp),%eax
  800838:	50                   	push   %eax
  800839:	e8 48 e3 00 00       	call   80eb86 <memset>
  
  /* Go through each socket in each list to count number of sockets which
  currently match */
  for(i = 0; i < maxfdp1; i++) {
  80083e:	83 c4 10             	add    $0x10,%esp
 * @return number of sockets that had events (read+write)
 */
static int
lwip_selscan(int maxfdp1, fd_set *readset, fd_set *writeset, fd_set *exceptset)
{
  int i, nready = 0;
  800841:	c7 45 c4 00 00 00 00 	movl   $0x0,-0x3c(%ebp)
  FD_ZERO(&lwriteset);
  FD_ZERO(&lexceptset);
  
  /* Go through each socket in each list to count number of sockets which
  currently match */
  for(i = 0; i < maxfdp1; i++) {
  800848:	bf 00 00 00 00       	mov    $0x0,%edi
  80084d:	e9 80 00 00 00       	jmp    8008d2 <lwip_selscan+0xd3>
    if (FD_ISSET(i, readset)) {
  800852:	8d 5f 07             	lea    0x7(%edi),%ebx
  800855:	85 ff                	test   %edi,%edi
  800857:	0f 49 df             	cmovns %edi,%ebx
  80085a:	c1 fb 03             	sar    $0x3,%ebx
  80085d:	89 5d d4             	mov    %ebx,-0x2c(%ebp)
  800860:	89 fe                	mov    %edi,%esi
  800862:	83 e6 07             	and    $0x7,%esi
  800865:	8b 45 cc             	mov    -0x34(%ebp),%eax
  800868:	0f b6 04 18          	movzbl (%eax,%ebx,1),%eax
  80086c:	0f a3 f0             	bt     %esi,%eax
  80086f:	73 2c                	jae    80089d <lwip_selscan+0x9e>
      /* See if netconn of this socket is ready for read */
      p_sock = get_socket(i);
  800871:	89 f8                	mov    %edi,%eax
  800873:	e8 3c ff ff ff       	call   8007b4 <get_socket>
      if (p_sock && (p_sock->lastdata || p_sock->rcvevent)) {
  800878:	85 c0                	test   %eax,%eax
  80087a:	74 21                	je     80089d <lwip_selscan+0x9e>
  80087c:	83 78 04 00          	cmpl   $0x0,0x4(%eax)
  800880:	75 07                	jne    800889 <lwip_selscan+0x8a>
  800882:	66 83 78 0a 00       	cmpw   $0x0,0xa(%eax)
  800887:	74 14                	je     80089d <lwip_selscan+0x9e>
        FD_SET(i, &lreadset);
  800889:	b8 01 00 00 00       	mov    $0x1,%eax
  80088e:	89 f1                	mov    %esi,%ecx
  800890:	d3 e0                	shl    %cl,%eax
  800892:	8b 55 d4             	mov    -0x2c(%ebp),%edx
  800895:	08 44 15 e4          	or     %al,-0x1c(%ebp,%edx,1)
        LWIP_DEBUGF(SOCKETS_DEBUG, ("lwip_selscan: fd=%d ready for reading\n", i));
        nready++;
  800899:	83 45 c4 01          	addl   $0x1,-0x3c(%ebp)
      }
    }
    if (FD_ISSET(i, writeset)) {
  80089d:	8b 45 c8             	mov    -0x38(%ebp),%eax
  8008a0:	0f b6 04 18          	movzbl (%eax,%ebx,1),%eax
  8008a4:	0f a3 f0             	bt     %esi,%eax
  8008a7:	73 26                	jae    8008cf <lwip_selscan+0xd0>
      /* See if netconn of this socket is ready for write */
      p_sock = get_socket(i);
  8008a9:	89 f8                	mov    %edi,%eax
  8008ab:	e8 04 ff ff ff       	call   8007b4 <get_socket>
      if (p_sock && p_sock->sendevent) {
  8008b0:	85 c0                	test   %eax,%eax
  8008b2:	74 1b                	je     8008cf <lwip_selscan+0xd0>
  8008b4:	66 83 78 0c 00       	cmpw   $0x0,0xc(%eax)
  8008b9:	74 14                	je     8008cf <lwip_selscan+0xd0>
        FD_SET(i, &lwriteset);
  8008bb:	b8 01 00 00 00       	mov    $0x1,%eax
  8008c0:	89 f1                	mov    %esi,%ecx
  8008c2:	d3 e0                	shl    %cl,%eax
  8008c4:	8b 55 d4             	mov    -0x2c(%ebp),%edx
  8008c7:	08 44 15 e0          	or     %al,-0x20(%ebp,%edx,1)
        LWIP_DEBUGF(SOCKETS_DEBUG, ("lwip_selscan: fd=%d ready for writing\n", i));
        nready++;
  8008cb:	83 45 c4 01          	addl   $0x1,-0x3c(%ebp)
  FD_ZERO(&lwriteset);
  FD_ZERO(&lexceptset);
  
  /* Go through each socket in each list to count number of sockets which
  currently match */
  for(i = 0; i < maxfdp1; i++) {
  8008cf:	83 c7 01             	add    $0x1,%edi
  8008d2:	3b 7d d0             	cmp    -0x30(%ebp),%edi
  8008d5:	0f 8c 77 ff ff ff    	jl     800852 <lwip_selscan+0x53>
        LWIP_DEBUGF(SOCKETS_DEBUG, ("lwip_selscan: fd=%d ready for writing\n", i));
        nready++;
      }
    }
  }
  *readset = lreadset;
  8008db:	8b 45 e4             	mov    -0x1c(%ebp),%eax
  8008de:	8b 55 cc             	mov    -0x34(%ebp),%edx
  8008e1:	89 02                	mov    %eax,(%edx)
  *writeset = lwriteset;
  8008e3:	8b 45 e0             	mov    -0x20(%ebp),%eax
  8008e6:	8b 4d c8             	mov    -0x38(%ebp),%ecx
  8008e9:	89 01                	mov    %eax,(%ecx)
  FD_ZERO(exceptset);
  8008eb:	83 ec 04             	sub    $0x4,%esp
  8008ee:	6a 04                	push   $0x4
  8008f0:	6a 00                	push   $0x0
  8008f2:	ff 75 08             	pushl  0x8(%ebp)
  8008f5:	e8 8c e2 00 00       	call   80eb86 <memset>
  
  return nready;
}
  8008fa:	8b 45 c4             	mov    -0x3c(%ebp),%eax
  8008fd:	8d 65 f4             	lea    -0xc(%ebp),%esp
  800900:	5b                   	pop    %ebx
  800901:	5e                   	pop    %esi
  800902:	5f                   	pop    %edi
  800903:	5d                   	pop    %ebp
  800904:	c3                   	ret    

00800905 <lwip_getaddrname>:
  return lwip_close(s); /* XXX temporary hack until proper implementation */
}

static int
lwip_getaddrname(int s, struct sockaddr *name, socklen_t *namelen, u8_t local)
{
  800905:	55                   	push   %ebp
  800906:	89 e5                	mov    %esp,%ebp
  800908:	57                   	push   %edi
  800909:	56                   	push   %esi
  80090a:	53                   	push   %ebx
  80090b:	83 ec 3c             	sub    $0x3c,%esp
  80090e:	89 55 c4             	mov    %edx,-0x3c(%ebp)
  800911:	89 cf                	mov    %ecx,%edi
  800913:	8b 75 08             	mov    0x8(%ebp),%esi
  struct lwip_socket *sock;
  struct sockaddr_in sin;
  struct ip_addr naddr;

  sock = get_socket(s);
  800916:	e8 99 fe ff ff       	call   8007b4 <get_socket>
  80091b:	89 c3                	mov    %eax,%ebx
  if (!sock)
  80091d:	85 c0                	test   %eax,%eax
  80091f:	74 7e                	je     80099f <lwip_getaddrname+0x9a>
    return -1;

  memset(&sin, 0, sizeof(sin));
  800921:	83 ec 04             	sub    $0x4,%esp
  800924:	6a 10                	push   $0x10
  800926:	6a 00                	push   $0x0
  800928:	8d 45 d8             	lea    -0x28(%ebp),%eax
  80092b:	50                   	push   %eax
  80092c:	e8 55 e2 00 00       	call   80eb86 <memset>
  sin.sin_len = sizeof(sin);
  800931:	c6 45 d8 10          	movb   $0x10,-0x28(%ebp)
  sin.sin_family = AF_INET;
  800935:	c6 45 d9 02          	movb   $0x2,-0x27(%ebp)

  /* get the IP address and port */
  netconn_getaddr(sock->conn, &naddr, &sin.sin_port, local);
  800939:	89 f0                	mov    %esi,%eax
  80093b:	0f b6 f0             	movzbl %al,%esi
  80093e:	56                   	push   %esi
  80093f:	8d 45 da             	lea    -0x26(%ebp),%eax
  800942:	50                   	push   %eax
  800943:	8d 45 d4             	lea    -0x2c(%ebp),%eax
  800946:	50                   	push   %eax
  800947:	ff 33                	pushl  (%ebx)
  800949:	e8 ec a2 00 00       	call   80ac3a <netconn_getaddr>

  LWIP_DEBUGF(SOCKETS_DEBUG, ("lwip_getaddrname(%d, addr=", s));
  //ip_addr_debug_print(SOCKETS_DEBUG, &naddr);
  LWIP_DEBUGF(SOCKETS_DEBUG, (" port=%d)\n", sin.sin_port));

  sin.sin_port = htons(sin.sin_port);
  80094e:	83 c4 14             	add    $0x14,%esp
  800951:	0f b7 45 da          	movzwl -0x26(%ebp),%eax
  800955:	50                   	push   %eax
  800956:	e8 f2 6c 00 00       	call   80764d <htons>
  80095b:	66 89 45 da          	mov    %ax,-0x26(%ebp)
  sin.sin_addr.s_addr = naddr.addr;
  80095f:	8b 45 d4             	mov    -0x2c(%ebp),%eax
  800962:	89 45 dc             	mov    %eax,-0x24(%ebp)

  if (*namelen > sizeof(sin))
  800965:	83 c4 10             	add    $0x10,%esp
  800968:	83 3f 10             	cmpl   $0x10,(%edi)
  80096b:	76 06                	jbe    800973 <lwip_getaddrname+0x6e>
    *namelen = sizeof(sin);
  80096d:	c7 07 10 00 00 00    	movl   $0x10,(%edi)

  SMEMCPY(name, &sin, *namelen);
  800973:	83 ec 04             	sub    $0x4,%esp
  800976:	ff 37                	pushl  (%edi)
  800978:	8d 45 d8             	lea    -0x28(%ebp),%eax
  80097b:	50                   	push   %eax
  80097c:	ff 75 c4             	pushl  -0x3c(%ebp)
  80097f:	e8 b7 e2 00 00       	call   80ec3b <memcpy>
  sock_set_errno(sock, 0);
  800984:	c7 43 10 00 00 00 00 	movl   $0x0,0x10(%ebx)
  80098b:	c7 05 20 b3 b3 00 00 	movl   $0x0,0xb3b320
  800992:	00 00 00 
  return 0;
  800995:	83 c4 10             	add    $0x10,%esp
  800998:	b8 00 00 00 00       	mov    $0x0,%eax
  80099d:	eb 05                	jmp    8009a4 <lwip_getaddrname+0x9f>
  struct sockaddr_in sin;
  struct ip_addr naddr;

  sock = get_socket(s);
  if (!sock)
    return -1;
  80099f:	b8 ff ff ff ff       	mov    $0xffffffff,%eax
    *namelen = sizeof(sin);

  SMEMCPY(name, &sin, *namelen);
  sock_set_errno(sock, 0);
  return 0;
}
  8009a4:	8d 65 f4             	lea    -0xc(%ebp),%esp
  8009a7:	5b                   	pop    %ebx
  8009a8:	5e                   	pop    %esi
  8009a9:	5f                   	pop    %edi
  8009aa:	5d                   	pop    %ebp
  8009ab:	c3                   	ret    

008009ac <event_callback>:
 * Callback registered in the netconn layer for each socket-netconn.
 * Processes recvevent (data available) and wakes up tasks waiting for select.
 */
static void
event_callback(struct netconn *conn, enum netconn_evt evt, u16_t len)
{
  8009ac:	55                   	push   %ebp
  8009ad:	89 e5                	mov    %esp,%ebp
  8009af:	57                   	push   %edi
  8009b0:	56                   	push   %esi
  8009b1:	53                   	push   %ebx
  8009b2:	83 ec 1c             	sub    $0x1c,%esp
  8009b5:	8b 7d 08             	mov    0x8(%ebp),%edi
  8009b8:	8b 75 0c             	mov    0xc(%ebp),%esi
  struct lwip_select_cb *scb;

  LWIP_UNUSED_ARG(len);

  /* Get socket */
  if (conn) {
  8009bb:	85 ff                	test   %edi,%edi
  8009bd:	0f 84 81 01 00 00    	je     800b44 <event_callback+0x198>
    s = conn->socket;
  8009c3:	8b 5f 1c             	mov    0x1c(%edi),%ebx
    if (s < 0) {
  8009c6:	85 db                	test   %ebx,%ebx
  8009c8:	79 49                	jns    800a13 <event_callback+0x67>
      /* Data comes in right away after an accept, even though
       * the server task might not have created a new socket yet.
       * Just count down (or up) if that's the case and we
       * will use the data later. Note that only receive events
       * can happen before the new socket is set up. */
      sys_sem_wait(socksem);
  8009ca:	83 ec 0c             	sub    $0xc,%esp
  8009cd:	ff 35 84 50 81 00    	pushl  0x815084
  8009d3:	e8 da 46 00 00       	call   8050b2 <sys_sem_wait>
      if (conn->socket < 0) {
  8009d8:	8b 47 1c             	mov    0x1c(%edi),%eax
  8009db:	83 c4 10             	add    $0x10,%esp
  8009de:	85 c0                	test   %eax,%eax
  8009e0:	79 20                	jns    800a02 <event_callback+0x56>
        if (evt == NETCONN_EVT_RCVPLUS) {
  8009e2:	85 f6                	test   %esi,%esi
  8009e4:	75 06                	jne    8009ec <event_callback+0x40>
          conn->socket--;
  8009e6:	83 e8 01             	sub    $0x1,%eax
  8009e9:	89 47 1c             	mov    %eax,0x1c(%edi)
        }
        sys_sem_signal(socksem);
  8009ec:	83 ec 0c             	sub    $0xc,%esp
  8009ef:	ff 35 84 50 81 00    	pushl  0x815084
  8009f5:	e8 a1 95 00 00       	call   809f9b <sys_sem_signal>
        return;
  8009fa:	83 c4 10             	add    $0x10,%esp
  8009fd:	e9 42 01 00 00       	jmp    800b44 <event_callback+0x198>
      }
      sys_sem_signal(socksem);
  800a02:	83 ec 0c             	sub    $0xc,%esp
  800a05:	ff 35 84 50 81 00    	pushl  0x815084
  800a0b:	e8 8b 95 00 00       	call   809f9b <sys_sem_signal>
  800a10:	83 c4 10             	add    $0x10,%esp
    }

    sock = get_socket(s);
  800a13:	89 d8                	mov    %ebx,%eax
  800a15:	e8 9a fd ff ff       	call   8007b4 <get_socket>
  800a1a:	89 45 e4             	mov    %eax,-0x1c(%ebp)
    if (!sock) {
  800a1d:	85 c0                	test   %eax,%eax
  800a1f:	0f 84 1f 01 00 00    	je     800b44 <event_callback+0x198>
    }
  } else {
    return;
  }

  sys_sem_wait(selectsem);
  800a25:	83 ec 0c             	sub    $0xc,%esp
  800a28:	ff 35 80 50 81 00    	pushl  0x815080
  800a2e:	e8 7f 46 00 00       	call   8050b2 <sys_sem_wait>
  /* Set event as required */
  switch (evt) {
  800a33:	83 c4 10             	add    $0x10,%esp
  800a36:	83 fe 01             	cmp    $0x1,%esi
  800a39:	74 1b                	je     800a56 <event_callback+0xaa>
  800a3b:	83 fe 01             	cmp    $0x1,%esi
  800a3e:	72 0c                	jb     800a4c <event_callback+0xa0>
  800a40:	83 fe 02             	cmp    $0x2,%esi
  800a43:	74 1b                	je     800a60 <event_callback+0xb4>
  800a45:	83 fe 03             	cmp    $0x3,%esi
  800a48:	74 21                	je     800a6b <event_callback+0xbf>
  800a4a:	eb 2a                	jmp    800a76 <event_callback+0xca>
    case NETCONN_EVT_RCVPLUS:
      sock->rcvevent++;
  800a4c:	8b 45 e4             	mov    -0x1c(%ebp),%eax
  800a4f:	66 83 40 0a 01       	addw   $0x1,0xa(%eax)
      break;
  800a54:	eb 37                	jmp    800a8d <event_callback+0xe1>
    case NETCONN_EVT_RCVMINUS:
      sock->rcvevent--;
  800a56:	8b 45 e4             	mov    -0x1c(%ebp),%eax
  800a59:	66 83 68 0a 01       	subw   $0x1,0xa(%eax)
      break;
  800a5e:	eb 2d                	jmp    800a8d <event_callback+0xe1>
    case NETCONN_EVT_SENDPLUS:
      sock->sendevent = 1;
  800a60:	8b 45 e4             	mov    -0x1c(%ebp),%eax
  800a63:	66 c7 40 0c 01 00    	movw   $0x1,0xc(%eax)
      break;
  800a69:	eb 22                	jmp    800a8d <event_callback+0xe1>
    case NETCONN_EVT_SENDMINUS:
      sock->sendevent = 0;
  800a6b:	8b 45 e4             	mov    -0x1c(%ebp),%eax
  800a6e:	66 c7 40 0c 00 00    	movw   $0x0,0xc(%eax)
      break;
  800a74:	eb 17                	jmp    800a8d <event_callback+0xe1>
    default:
      LWIP_ASSERT("unknown event", 0);
  800a76:	83 ec 04             	sub    $0x4,%esp
  800a79:	68 60 0f 81 00       	push   $0x810f60
  800a7e:	68 17 04 00 00       	push   $0x417
  800a83:	68 6e 0f 81 00       	push   $0x810f6e
  800a88:	e8 54 d9 00 00       	call   80e3e1 <_panic>
      break;
  }
  sys_sem_signal(selectsem);
  800a8d:	83 ec 0c             	sub    $0xc,%esp
  800a90:	ff 35 80 50 81 00    	pushl  0x815080
  800a96:	e8 00 95 00 00       	call   809f9b <sys_sem_signal>
  while (1) {
    sys_sem_wait(selectsem);
    for (scb = select_cb_list; scb; scb = scb->next) {
      if (scb->sem_signalled == 0) {
        /* Test this select call for our socket */
        if (scb->readset && FD_ISSET(s, scb->readset))
  800a9b:	8d 73 07             	lea    0x7(%ebx),%esi
  800a9e:	83 c4 10             	add    $0x10,%esp
  800aa1:	85 db                	test   %ebx,%ebx
  800aa3:	0f 49 f3             	cmovns %ebx,%esi
  800aa6:	c1 fe 03             	sar    $0x3,%esi
  800aa9:	89 d9                	mov    %ebx,%ecx
  800aab:	83 e1 07             	and    $0x7,%ecx
  800aae:	bf 01 00 00 00       	mov    $0x1,%edi
  800ab3:	d3 e7                	shl    %cl,%edi
     signalling for the select. This means we need to go through the list
     multiple times ONLY IF a select was actually waiting. We go through
     the list the number of waiting select calls + 1. This list is
     expected to be small. */
  while (1) {
    sys_sem_wait(selectsem);
  800ab5:	83 ec 0c             	sub    $0xc,%esp
  800ab8:	ff 35 80 50 81 00    	pushl  0x815080
  800abe:	e8 ef 45 00 00       	call   8050b2 <sys_sem_wait>
    for (scb = select_cb_list; scb; scb = scb->next) {
  800ac3:	8b 1d 88 50 81 00    	mov    0x815088,%ebx
  800ac9:	83 c4 10             	add    $0x10,%esp
  800acc:	eb 3a                	jmp    800b08 <event_callback+0x15c>
      if (scb->sem_signalled == 0) {
  800ace:	83 7b 10 00          	cmpl   $0x0,0x10(%ebx)
  800ad2:	75 32                	jne    800b06 <event_callback+0x15a>
        /* Test this select call for our socket */
        if (scb->readset && FD_ISSET(s, scb->readset))
  800ad4:	8b 43 04             	mov    0x4(%ebx),%eax
  800ad7:	85 c0                	test   %eax,%eax
  800ad9:	74 12                	je     800aed <event_callback+0x141>
  800adb:	0f b6 04 30          	movzbl (%eax,%esi,1),%eax
  800adf:	85 f8                	test   %edi,%eax
  800ae1:	74 0a                	je     800aed <event_callback+0x141>
          if (sock->rcvevent)
  800ae3:	8b 45 e4             	mov    -0x1c(%ebp),%eax
  800ae6:	66 83 78 0a 00       	cmpw   $0x0,0xa(%eax)
  800aeb:	75 21                	jne    800b0e <event_callback+0x162>
            break;
        if (scb->writeset && FD_ISSET(s, scb->writeset))
  800aed:	8b 43 08             	mov    0x8(%ebx),%eax
  800af0:	85 c0                	test   %eax,%eax
  800af2:	74 12                	je     800b06 <event_callback+0x15a>
  800af4:	0f b6 04 30          	movzbl (%eax,%esi,1),%eax
  800af8:	85 f8                	test   %edi,%eax
  800afa:	74 0a                	je     800b06 <event_callback+0x15a>
          if (sock->sendevent)
  800afc:	8b 45 e4             	mov    -0x1c(%ebp),%eax
  800aff:	66 83 78 0c 00       	cmpw   $0x0,0xc(%eax)
  800b04:	75 08                	jne    800b0e <event_callback+0x162>
     multiple times ONLY IF a select was actually waiting. We go through
     the list the number of waiting select calls + 1. This list is
     expected to be small. */
  while (1) {
    sys_sem_wait(selectsem);
    for (scb = select_cb_list; scb; scb = scb->next) {
  800b06:	8b 1b                	mov    (%ebx),%ebx
  800b08:	85 db                	test   %ebx,%ebx
  800b0a:	75 c2                	jne    800ace <event_callback+0x122>
  800b0c:	eb 25                	jmp    800b33 <event_callback+0x187>
          if (sock->sendevent)
            break;
      }
    }
    if (scb) {
      scb->sem_signalled = 1;
  800b0e:	c7 43 10 01 00 00 00 	movl   $0x1,0x10(%ebx)
      sys_sem_signal(selectsem);
  800b15:	83 ec 0c             	sub    $0xc,%esp
  800b18:	ff 35 80 50 81 00    	pushl  0x815080
  800b1e:	e8 78 94 00 00       	call   809f9b <sys_sem_signal>
      sys_sem_signal(scb->sem);
  800b23:	83 c4 04             	add    $0x4,%esp
  800b26:	ff 73 14             	pushl  0x14(%ebx)
  800b29:	e8 6d 94 00 00       	call   809f9b <sys_sem_signal>
    } else {
      sys_sem_signal(selectsem);
      break;
    }
  }
  800b2e:	83 c4 10             	add    $0x10,%esp
  800b31:	eb 82                	jmp    800ab5 <event_callback+0x109>
    if (scb) {
      scb->sem_signalled = 1;
      sys_sem_signal(selectsem);
      sys_sem_signal(scb->sem);
    } else {
      sys_sem_signal(selectsem);
  800b33:	83 ec 0c             	sub    $0xc,%esp
  800b36:	ff 35 80 50 81 00    	pushl  0x815080
  800b3c:	e8 5a 94 00 00       	call   809f9b <sys_sem_signal>
      break;
  800b41:	83 c4 10             	add    $0x10,%esp
    }
  }
}
  800b44:	8d 65 f4             	lea    -0xc(%ebp),%esp
  800b47:	5b                   	pop    %ebx
  800b48:	5e                   	pop    %esi
  800b49:	5f                   	pop    %edi
  800b4a:	5d                   	pop    %ebp
  800b4b:	c3                   	ret    

00800b4c <alloc_socket>:
 * @param newconn the netconn for which to allocate a socket
 * @return the index of the new socket; -1 on error
 */
static int
alloc_socket(struct netconn *newconn)
{
  800b4c:	55                   	push   %ebp
  800b4d:	89 e5                	mov    %esp,%ebp
  800b4f:	56                   	push   %esi
  800b50:	53                   	push   %ebx
  800b51:	89 c6                	mov    %eax,%esi
  int i;

  /* Protect socket array */
  sys_sem_wait(socksem);
  800b53:	83 ec 0c             	sub    $0xc,%esp
  800b56:	ff 35 84 50 81 00    	pushl  0x815084
  800b5c:	e8 51 45 00 00       	call   8050b2 <sys_sem_wait>
  800b61:	ba c0 50 81 00       	mov    $0x8150c0,%edx
  800b66:	83 c4 10             	add    $0x10,%esp

  /* allocate a new socket identifier */
  for (i = 0; i < NUM_SOCKETS; ++i) {
  800b69:	bb 00 00 00 00       	mov    $0x0,%ebx
    if (!sockets[i].conn) {
  800b6e:	83 3a 00             	cmpl   $0x0,(%edx)
  800b71:	75 63                	jne    800bd6 <alloc_socket+0x8a>
      sockets[i].conn       = newconn;
  800b73:	8d 14 9d 00 00 00 00 	lea    0x0(,%ebx,4),%edx
  800b7a:	8d 0c 1a             	lea    (%edx,%ebx,1),%ecx
  800b7d:	c1 e1 02             	shl    $0x2,%ecx
  800b80:	89 b1 c0 50 81 00    	mov    %esi,0x8150c0(%ecx)
      sockets[i].lastdata   = NULL;
  800b86:	c7 81 c4 50 81 00 00 	movl   $0x0,0x8150c4(%ecx)
  800b8d:	00 00 00 
      sockets[i].lastoffset = 0;
  800b90:	66 c7 81 c8 50 81 00 	movw   $0x0,0x8150c8(%ecx)
  800b97:	00 00 
      sockets[i].rcvevent   = 0;
  800b99:	66 c7 81 ca 50 81 00 	movw   $0x0,0x8150ca(%ecx)
  800ba0:	00 00 
      sockets[i].sendevent  = 1; /* TCP send buf is empty */
  800ba2:	66 c7 81 cc 50 81 00 	movw   $0x1,0x8150cc(%ecx)
  800ba9:	01 00 
      sockets[i].flags      = 0;
  800bab:	66 c7 81 ce 50 81 00 	movw   $0x0,0x8150ce(%ecx)
  800bb2:	00 00 
      sockets[i].err        = 0;
  800bb4:	01 da                	add    %ebx,%edx
  800bb6:	c7 04 95 d0 50 81 00 	movl   $0x0,0x8150d0(,%edx,4)
  800bbd:	00 00 00 00 
      sys_sem_signal(socksem);
  800bc1:	83 ec 0c             	sub    $0xc,%esp
  800bc4:	ff 35 84 50 81 00    	pushl  0x815084
  800bca:	e8 cc 93 00 00       	call   809f9b <sys_sem_signal>
      return i;
  800bcf:	83 c4 10             	add    $0x10,%esp
  800bd2:	89 d8                	mov    %ebx,%eax
  800bd4:	eb 21                	jmp    800bf7 <alloc_socket+0xab>

  /* Protect socket array */
  sys_sem_wait(socksem);

  /* allocate a new socket identifier */
  for (i = 0; i < NUM_SOCKETS; ++i) {
  800bd6:	83 c3 01             	add    $0x1,%ebx
  800bd9:	83 c2 14             	add    $0x14,%edx
  800bdc:	83 fb 20             	cmp    $0x20,%ebx
  800bdf:	75 8d                	jne    800b6e <alloc_socket+0x22>
      sockets[i].err        = 0;
      sys_sem_signal(socksem);
      return i;
    }
  }
  sys_sem_signal(socksem);
  800be1:	83 ec 0c             	sub    $0xc,%esp
  800be4:	ff 35 84 50 81 00    	pushl  0x815084
  800bea:	e8 ac 93 00 00       	call   809f9b <sys_sem_signal>
  return -1;
  800bef:	83 c4 10             	add    $0x10,%esp
  800bf2:	b8 ff ff ff ff       	mov    $0xffffffff,%eax
}
  800bf7:	8d 65 f8             	lea    -0x8(%ebp),%esp
  800bfa:	5b                   	pop    %ebx
  800bfb:	5e                   	pop    %esi
  800bfc:	5d                   	pop    %ebp
  800bfd:	c3                   	ret    

00800bfe <lwip_getsockopt_internal>:
  return err ? -1 : 0;
}

static void
lwip_getsockopt_internal(void *arg)
{
  800bfe:	55                   	push   %ebp
  800bff:	89 e5                	mov    %esp,%ebp
  800c01:	53                   	push   %ebx
  800c02:	83 ec 04             	sub    $0x4,%esp
  800c05:	8b 45 08             	mov    0x8(%ebp),%eax
#endif /* LWIP_DEBUG */
  int level, optname;
  void *optval;
  struct lwip_setgetsockopt_data *data;

  LWIP_ASSERT("arg != NULL", arg != NULL);
  800c08:	85 c0                	test   %eax,%eax
  800c0a:	75 17                	jne    800c23 <lwip_getsockopt_internal+0x25>
  800c0c:	83 ec 04             	sub    $0x4,%esp
  800c0f:	68 85 0f 81 00       	push   $0x810f85
  800c14:	68 38 05 00 00       	push   $0x538
  800c19:	68 6e 0f 81 00       	push   $0x810f6e
  800c1e:	e8 be d7 00 00       	call   80e3e1 <_panic>

  data = (struct lwip_setgetsockopt_data*)arg;
  sock = data->sock;
  800c23:	8b 08                	mov    (%eax),%ecx
#ifdef LWIP_DEBUG
  s = data->s;
#endif /* LWIP_DEBUG */
  level = data->level;
  optname = data->optname;
  800c25:	8b 50 0c             	mov    0xc(%eax),%edx
  optval = data->optval;
  800c28:	8b 58 10             	mov    0x10(%eax),%ebx

  switch (level) {
  800c2b:	8b 40 08             	mov    0x8(%eax),%eax
  800c2e:	83 f8 06             	cmp    $0x6,%eax
  800c31:	0f 84 09 01 00 00    	je     800d40 <lwip_getsockopt_internal+0x142>
  800c37:	3d ff 0f 00 00       	cmp    $0xfff,%eax
  800c3c:	74 0d                	je     800c4b <lwip_getsockopt_internal+0x4d>
  800c3e:	85 c0                	test   %eax,%eax
  800c40:	0f 85 26 01 00 00    	jne    800d6c <lwip_getsockopt_internal+0x16e>
  800c46:	e9 d1 00 00 00       	jmp    800d1c <lwip_getsockopt_internal+0x11e>
   
/* Level: SOL_SOCKET */
  case SOL_SOCKET:
    switch (optname) {
  800c4b:	83 fa 20             	cmp    $0x20,%edx
  800c4e:	74 37                	je     800c87 <lwip_getsockopt_internal+0x89>
  800c50:	83 fa 20             	cmp    $0x20,%edx
  800c53:	7f 10                	jg     800c65 <lwip_getsockopt_internal+0x67>
  800c55:	83 fa 02             	cmp    $0x2,%edx
  800c58:	74 2d                	je     800c87 <lwip_getsockopt_internal+0x89>
  800c5a:	83 fa 08             	cmp    $0x8,%edx
  800c5d:	0f 85 09 01 00 00    	jne    800d6c <lwip_getsockopt_internal+0x16e>
  800c63:	eb 22                	jmp    800c87 <lwip_getsockopt_internal+0x89>
  800c65:	81 fa 08 10 00 00    	cmp    $0x1008,%edx
  800c6b:	74 2c                	je     800c99 <lwip_getsockopt_internal+0x9b>
  800c6d:	81 fa 0a 10 00 00    	cmp    $0x100a,%edx
  800c73:	0f 84 93 00 00 00    	je     800d0c <lwip_getsockopt_internal+0x10e>
  800c79:	81 fa 07 10 00 00    	cmp    $0x1007,%edx
  800c7f:	0f 85 e7 00 00 00    	jne    800d6c <lwip_getsockopt_internal+0x16e>
  800c85:	eb 4f                	jmp    800cd6 <lwip_getsockopt_internal+0xd8>
#if SO_REUSE
    case SO_REUSEADDR:
    case SO_REUSEPORT:
#endif /* SO_REUSE */
    /*case SO_USELOOPBACK: UNIMPL */
      *(int*)optval = sock->conn->pcb.ip->so_options & optname;
  800c87:	8b 01                	mov    (%ecx),%eax
  800c89:	8b 40 08             	mov    0x8(%eax),%eax
  800c8c:	0f b7 40 08          	movzwl 0x8(%eax),%eax
  800c90:	21 c2                	and    %eax,%edx
  800c92:	89 13                	mov    %edx,(%ebx)
      LWIP_DEBUGF(SOCKETS_DEBUG, ("lwip_getsockopt(%d, SOL_SOCKET, optname=0x%x, ..) = %s\n",
                                  s, optname, (*(int*)optval?"on":"off")));
      break;
  800c94:	e9 d3 00 00 00       	jmp    800d6c <lwip_getsockopt_internal+0x16e>

    case SO_TYPE:
      switch (NETCONNTYPE_GROUP(sock->conn->type)) {
  800c99:	8b 01                	mov    (%ecx),%eax
  800c9b:	8b 10                	mov    (%eax),%edx
  800c9d:	89 d0                	mov    %edx,%eax
  800c9f:	25 f0 00 00 00       	and    $0xf0,%eax
  800ca4:	83 f8 20             	cmp    $0x20,%eax
  800ca7:	74 22                	je     800ccb <lwip_getsockopt_internal+0xcd>
  800ca9:	83 f8 40             	cmp    $0x40,%eax
  800cac:	74 12                	je     800cc0 <lwip_getsockopt_internal+0xc2>
  800cae:	83 f8 10             	cmp    $0x10,%eax
        break;
      case NETCONN_UDP:
        *(int*)optval = SOCK_DGRAM;
        break;
      default: /* unrecognized socket type */
        *(int*)optval = sock->conn->type;
  800cb1:	b8 01 00 00 00       	mov    $0x1,%eax
  800cb6:	0f 44 d0             	cmove  %eax,%edx
  800cb9:	89 13                	mov    %edx,(%ebx)
  800cbb:	e9 ac 00 00 00       	jmp    800d6c <lwip_getsockopt_internal+0x16e>
      break;

    case SO_TYPE:
      switch (NETCONNTYPE_GROUP(sock->conn->type)) {
      case NETCONN_RAW:
        *(int*)optval = SOCK_RAW;
  800cc0:	c7 03 03 00 00 00    	movl   $0x3,(%ebx)
        break;
  800cc6:	e9 a1 00 00 00       	jmp    800d6c <lwip_getsockopt_internal+0x16e>
      case NETCONN_TCP:
        *(int*)optval = SOCK_STREAM;
        break;
      case NETCONN_UDP:
        *(int*)optval = SOCK_DGRAM;
  800ccb:	c7 03 02 00 00 00    	movl   $0x2,(%ebx)
        break;
  800cd1:	e9 96 00 00 00       	jmp    800d6c <lwip_getsockopt_internal+0x16e>
      LWIP_DEBUGF(SOCKETS_DEBUG, ("lwip_getsockopt(%d, SOL_SOCKET, SO_TYPE) = %d\n",
                  s, *(int *)optval));
      break;

    case SO_ERROR:
      if (sock->err == 0) {
  800cd6:	83 79 10 00          	cmpl   $0x0,0x10(%ecx)
  800cda:	75 22                	jne    800cfe <lwip_getsockopt_internal+0x100>
        sock_set_errno(sock, err_to_errno(sock->conn->err));
  800cdc:	8b 01                	mov    (%ecx),%eax
  800cde:	0f be 40 0c          	movsbl 0xc(%eax),%eax
  800ce2:	f7 d8                	neg    %eax
  800ce4:	ba 05 00 00 00       	mov    $0x5,%edx
  800ce9:	83 f8 0e             	cmp    $0xe,%eax
  800cec:	77 07                	ja     800cf5 <lwip_getsockopt_internal+0xf7>
  800cee:	8b 14 85 20 10 81 00 	mov    0x811020(,%eax,4),%edx
  800cf5:	89 51 10             	mov    %edx,0x10(%ecx)
  800cf8:	89 15 20 b3 b3 00    	mov    %edx,0xb3b320
      } 
      *(int *)optval = sock->err;
  800cfe:	8b 41 10             	mov    0x10(%ecx),%eax
  800d01:	89 03                	mov    %eax,(%ebx)
      sock->err = 0;
  800d03:	c7 41 10 00 00 00 00 	movl   $0x0,0x10(%ecx)
      LWIP_DEBUGF(SOCKETS_DEBUG, ("lwip_getsockopt(%d, SOL_SOCKET, SO_ERROR) = %d\n",
                  s, *(int *)optval));
      break;
  800d0a:	eb 60                	jmp    800d6c <lwip_getsockopt_internal+0x16e>
      *(int *)optval = sock->conn->recv_bufsize;
      break;
#endif /* LWIP_SO_RCVBUF */
#if LWIP_UDP
    case SO_NO_CHECK:
      *(int*)optval = (udp_flags(sock->conn->pcb.udp) & UDP_FLAGS_NOCHKSUM) ? 1 : 0;
  800d0c:	8b 01                	mov    (%ecx),%eax
  800d0e:	8b 40 08             	mov    0x8(%eax),%eax
  800d11:	0f b6 40 10          	movzbl 0x10(%eax),%eax
  800d15:	83 e0 01             	and    $0x1,%eax
  800d18:	89 03                	mov    %eax,(%ebx)
      break;
  800d1a:	eb 50                	jmp    800d6c <lwip_getsockopt_internal+0x16e>
    }  /* switch (optname) */
    break;

/* Level: IPPROTO_IP */
  case IPPROTO_IP:
    switch (optname) {
  800d1c:	83 fa 01             	cmp    $0x1,%edx
  800d1f:	74 12                	je     800d33 <lwip_getsockopt_internal+0x135>
  800d21:	83 fa 02             	cmp    $0x2,%edx
  800d24:	75 46                	jne    800d6c <lwip_getsockopt_internal+0x16e>
    case IP_TTL:
      *(int*)optval = sock->conn->pcb.ip->ttl;
  800d26:	8b 01                	mov    (%ecx),%eax
  800d28:	8b 40 08             	mov    0x8(%eax),%eax
  800d2b:	0f b6 40 0b          	movzbl 0xb(%eax),%eax
  800d2f:	89 03                	mov    %eax,(%ebx)
      LWIP_DEBUGF(SOCKETS_DEBUG, ("lwip_getsockopt(%d, IPPROTO_IP, IP_TTL) = %d\n",
                  s, *(int *)optval));
      break;
  800d31:	eb 39                	jmp    800d6c <lwip_getsockopt_internal+0x16e>
    case IP_TOS:
      *(int*)optval = sock->conn->pcb.ip->tos;
  800d33:	8b 01                	mov    (%ecx),%eax
  800d35:	8b 40 08             	mov    0x8(%eax),%eax
  800d38:	0f b6 40 0a          	movzbl 0xa(%eax),%eax
  800d3c:	89 03                	mov    %eax,(%ebx)
      LWIP_DEBUGF(SOCKETS_DEBUG, ("lwip_getsockopt(%d, IPPROTO_IP, IP_TOS) = %d\n",
                  s, *(int *)optval));
      break;
  800d3e:	eb 2c                	jmp    800d6c <lwip_getsockopt_internal+0x16e>
    break;

#if LWIP_TCP
/* Level: IPPROTO_TCP */
  case IPPROTO_TCP:
    switch (optname) {
  800d40:	83 fa 01             	cmp    $0x1,%edx
  800d43:	74 07                	je     800d4c <lwip_getsockopt_internal+0x14e>
  800d45:	83 fa 02             	cmp    $0x2,%edx
  800d48:	74 15                	je     800d5f <lwip_getsockopt_internal+0x161>
  800d4a:	eb 20                	jmp    800d6c <lwip_getsockopt_internal+0x16e>
    case TCP_NODELAY:
      *(int*)optval = (sock->conn->pcb.tcp->flags & TF_NODELAY);
  800d4c:	8b 01                	mov    (%ecx),%eax
  800d4e:	8b 40 08             	mov    0x8(%eax),%eax
  800d51:	0f b6 40 20          	movzbl 0x20(%eax),%eax
  800d55:	83 e0 40             	and    $0x40,%eax
  800d58:	0f b6 c0             	movzbl %al,%eax
  800d5b:	89 03                	mov    %eax,(%ebx)
      LWIP_DEBUGF(SOCKETS_DEBUG, ("lwip_getsockopt(%d, IPPROTO_TCP, TCP_NODELAY) = %s\n",
                  s, (*(int*)optval)?"on":"off") );
      break;
  800d5d:	eb 0d                	jmp    800d6c <lwip_getsockopt_internal+0x16e>
    case TCP_KEEPALIVE:
      *(int*)optval = (int)sock->conn->pcb.tcp->keep_idle;
  800d5f:	8b 01                	mov    (%ecx),%eax
  800d61:	8b 40 08             	mov    0x8(%eax),%eax
  800d64:	8b 80 9c 00 00 00    	mov    0x9c(%eax),%eax
  800d6a:	89 03                	mov    %eax,(%ebx)
      break;
    }  /* switch (optname) */
    break;
#endif /* LWIP_UDP */
  } /* switch (level) */
  sys_sem_signal(sock->conn->op_completed);
  800d6c:	83 ec 0c             	sub    $0xc,%esp
  800d6f:	8b 01                	mov    (%ecx),%eax
  800d71:	ff 70 10             	pushl  0x10(%eax)
  800d74:	e8 22 92 00 00       	call   809f9b <sys_sem_signal>
  800d79:	83 c4 10             	add    $0x10,%esp
}
  800d7c:	8b 5d fc             	mov    -0x4(%ebp),%ebx
  800d7f:	c9                   	leave  
  800d80:	c3                   	ret    

00800d81 <lwip_setsockopt_internal>:
  return err ? -1 : 0;
}

static void
lwip_setsockopt_internal(void *arg)
{
  800d81:	55                   	push   %ebp
  800d82:	89 e5                	mov    %esp,%ebp
  800d84:	53                   	push   %ebx
  800d85:	83 ec 04             	sub    $0x4,%esp
  800d88:	8b 45 08             	mov    0x8(%ebp),%eax
#endif /* LWIP_DEBUG */
  int level, optname;
  const void *optval;
  struct lwip_setgetsockopt_data *data;

  LWIP_ASSERT("arg != NULL", arg != NULL);
  800d8b:	85 c0                	test   %eax,%eax
  800d8d:	75 17                	jne    800da6 <lwip_setsockopt_internal+0x25>
  800d8f:	83 ec 04             	sub    $0x4,%esp
  800d92:	68 85 0f 81 00       	push   $0x810f85
  800d97:	68 ae 06 00 00       	push   $0x6ae
  800d9c:	68 6e 0f 81 00       	push   $0x810f6e
  800da1:	e8 3b d6 00 00       	call   80e3e1 <_panic>

  data = (struct lwip_setgetsockopt_data*)arg;
  sock = data->sock;
  800da6:	8b 08                	mov    (%eax),%ecx
#ifdef LWIP_DEBUG
  s = data->s;
#endif /* LWIP_DEBUG */
  level = data->level;
  optname = data->optname;
  800da8:	8b 50 0c             	mov    0xc(%eax),%edx
  optval = data->optval;
  800dab:	8b 58 10             	mov    0x10(%eax),%ebx

  switch (level) {
  800dae:	8b 40 08             	mov    0x8(%eax),%eax
  800db1:	83 f8 06             	cmp    $0x6,%eax
  800db4:	0f 84 81 00 00 00    	je     800e3b <lwip_setsockopt_internal+0xba>
  800dba:	3d ff 0f 00 00       	cmp    $0xfff,%eax
  800dbf:	74 0a                	je     800dcb <lwip_setsockopt_internal+0x4a>
  800dc1:	85 c0                	test   %eax,%eax
  800dc3:	0f 85 a6 00 00 00    	jne    800e6f <lwip_setsockopt_internal+0xee>
  800dc9:	eb 4e                	jmp    800e19 <lwip_setsockopt_internal+0x98>

/* Level: SOL_SOCKET */
  case SOL_SOCKET:
    switch (optname) {
  800dcb:	83 fa 20             	cmp    $0x20,%edx
  800dce:	74 11                	je     800de1 <lwip_setsockopt_internal+0x60>
  800dd0:	81 fa 0a 10 00 00    	cmp    $0x100a,%edx
  800dd6:	74 26                	je     800dfe <lwip_setsockopt_internal+0x7d>
  800dd8:	83 fa 08             	cmp    $0x8,%edx
  800ddb:	0f 85 8e 00 00 00    	jne    800e6f <lwip_setsockopt_internal+0xee>
#if SO_REUSE
    case SO_REUSEADDR:
    case SO_REUSEPORT:
#endif /* SO_REUSE */
    /* UNIMPL case SO_USELOOPBACK: */
      if (*(int*)optval) {
  800de1:	83 3b 00             	cmpl   $0x0,(%ebx)
  800de4:	74 0b                	je     800df1 <lwip_setsockopt_internal+0x70>
        sock->conn->pcb.ip->so_options |= optname;
  800de6:	8b 01                	mov    (%ecx),%eax
  800de8:	8b 40 08             	mov    0x8(%eax),%eax
  800deb:	66 09 50 08          	or     %dx,0x8(%eax)
  800def:	eb 7e                	jmp    800e6f <lwip_setsockopt_internal+0xee>
      } else {
        sock->conn->pcb.ip->so_options &= ~optname;
  800df1:	8b 01                	mov    (%ecx),%eax
  800df3:	8b 40 08             	mov    0x8(%eax),%eax
  800df6:	f7 d2                	not    %edx
  800df8:	66 21 50 08          	and    %dx,0x8(%eax)
  800dfc:	eb 71                	jmp    800e6f <lwip_setsockopt_internal+0xee>
      sock->conn->recv_bufsize = ( *(int*)optval );
      break;
#endif /* LWIP_SO_RCVBUF */
#if LWIP_UDP
    case SO_NO_CHECK:
      if (*(int*)optval) {
  800dfe:	83 3b 00             	cmpl   $0x0,(%ebx)
  800e01:	74 0b                	je     800e0e <lwip_setsockopt_internal+0x8d>
        udp_setflags(sock->conn->pcb.udp, udp_flags(sock->conn->pcb.udp) | UDP_FLAGS_NOCHKSUM);
  800e03:	8b 01                	mov    (%ecx),%eax
  800e05:	8b 40 08             	mov    0x8(%eax),%eax
  800e08:	80 48 10 01          	orb    $0x1,0x10(%eax)
  800e0c:	eb 61                	jmp    800e6f <lwip_setsockopt_internal+0xee>
      } else {
        udp_setflags(sock->conn->pcb.udp, udp_flags(sock->conn->pcb.udp) & ~UDP_FLAGS_NOCHKSUM);
  800e0e:	8b 01                	mov    (%ecx),%eax
  800e10:	8b 40 08             	mov    0x8(%eax),%eax
  800e13:	80 60 10 fe          	andb   $0xfe,0x10(%eax)
  800e17:	eb 56                	jmp    800e6f <lwip_setsockopt_internal+0xee>
    }  /* switch (optname) */
    break;

/* Level: IPPROTO_IP */
  case IPPROTO_IP:
    switch (optname) {
  800e19:	83 fa 01             	cmp    $0x1,%edx
  800e1c:	74 11                	je     800e2f <lwip_setsockopt_internal+0xae>
  800e1e:	83 fa 02             	cmp    $0x2,%edx
  800e21:	75 4c                	jne    800e6f <lwip_setsockopt_internal+0xee>
    case IP_TTL:
      sock->conn->pcb.ip->ttl = (u8_t)(*(int*)optval);
  800e23:	8b 01                	mov    (%ecx),%eax
  800e25:	8b 40 08             	mov    0x8(%eax),%eax
  800e28:	8b 13                	mov    (%ebx),%edx
  800e2a:	88 50 0b             	mov    %dl,0xb(%eax)
      LWIP_DEBUGF(SOCKETS_DEBUG, ("lwip_setsockopt(%d, IPPROTO_IP, IP_TTL, ..) -> %u\n",
                  s, sock->conn->pcb.ip->ttl));
      break;
  800e2d:	eb 40                	jmp    800e6f <lwip_setsockopt_internal+0xee>
    case IP_TOS:
      sock->conn->pcb.ip->tos = (u8_t)(*(int*)optval);
  800e2f:	8b 01                	mov    (%ecx),%eax
  800e31:	8b 40 08             	mov    0x8(%eax),%eax
  800e34:	8b 13                	mov    (%ebx),%edx
  800e36:	88 50 0a             	mov    %dl,0xa(%eax)
      LWIP_DEBUGF(SOCKETS_DEBUG, ("lwip_setsockopt(%d, IPPROTO_IP, IP_TOS, ..)-> %u\n",
                  s, sock->conn->pcb.ip->tos));
      break;
  800e39:	eb 34                	jmp    800e6f <lwip_setsockopt_internal+0xee>
    break;

#if LWIP_TCP
/* Level: IPPROTO_TCP */
  case IPPROTO_TCP:
    switch (optname) {
  800e3b:	83 fa 01             	cmp    $0x1,%edx
  800e3e:	74 07                	je     800e47 <lwip_setsockopt_internal+0xc6>
  800e40:	83 fa 02             	cmp    $0x2,%edx
  800e43:	74 1d                	je     800e62 <lwip_setsockopt_internal+0xe1>
  800e45:	eb 28                	jmp    800e6f <lwip_setsockopt_internal+0xee>
    case TCP_NODELAY:
      if (*(int*)optval) {
  800e47:	83 3b 00             	cmpl   $0x0,(%ebx)
  800e4a:	74 0b                	je     800e57 <lwip_setsockopt_internal+0xd6>
        sock->conn->pcb.tcp->flags |= TF_NODELAY;
  800e4c:	8b 01                	mov    (%ecx),%eax
  800e4e:	8b 40 08             	mov    0x8(%eax),%eax
  800e51:	80 48 20 40          	orb    $0x40,0x20(%eax)
  800e55:	eb 18                	jmp    800e6f <lwip_setsockopt_internal+0xee>
      } else {
        sock->conn->pcb.tcp->flags &= ~TF_NODELAY;
  800e57:	8b 01                	mov    (%ecx),%eax
  800e59:	8b 40 08             	mov    0x8(%eax),%eax
  800e5c:	80 60 20 bf          	andb   $0xbf,0x20(%eax)
  800e60:	eb 0d                	jmp    800e6f <lwip_setsockopt_internal+0xee>
      }
      LWIP_DEBUGF(SOCKETS_DEBUG, ("lwip_setsockopt(%d, IPPROTO_TCP, TCP_NODELAY) -> %s\n",
                  s, (*(int *)optval)?"on":"off") );
      break;
    case TCP_KEEPALIVE:
      sock->conn->pcb.tcp->keep_idle = (u32_t)(*(int*)optval);
  800e62:	8b 01                	mov    (%ecx),%eax
  800e64:	8b 40 08             	mov    0x8(%eax),%eax
  800e67:	8b 13                	mov    (%ebx),%edx
  800e69:	89 90 9c 00 00 00    	mov    %edx,0x9c(%eax)
      break;
    }  /* switch (optname) */
    break;
#endif /* LWIP_UDP */
  }  /* switch (level) */
  sys_sem_signal(sock->conn->op_completed);
  800e6f:	83 ec 0c             	sub    $0xc,%esp
  800e72:	8b 01                	mov    (%ecx),%eax
  800e74:	ff 70 10             	pushl  0x10(%eax)
  800e77:	e8 1f 91 00 00       	call   809f9b <sys_sem_signal>
  800e7c:	83 c4 10             	add    $0x10,%esp
}
  800e7f:	8b 5d fc             	mov    -0x4(%ebp),%ebx
  800e82:	c9                   	leave  
  800e83:	c3                   	ret    

00800e84 <lwip_socket_init>:
 * Initialize this module. This function has to be called before any other
 * functions in this module!
 */
void
lwip_socket_init(void)
{
  800e84:	55                   	push   %ebp
  800e85:	89 e5                	mov    %esp,%ebp
  800e87:	83 ec 14             	sub    $0x14,%esp
  socksem   = sys_sem_new(1);
  800e8a:	6a 01                	push   $0x1
  800e8c:	e8 59 8e 00 00       	call   809cea <sys_sem_new>
  800e91:	a3 84 50 81 00       	mov    %eax,0x815084
  selectsem = sys_sem_new(1);
  800e96:	c7 04 24 01 00 00 00 	movl   $0x1,(%esp)
  800e9d:	e8 48 8e 00 00       	call   809cea <sys_sem_new>
  800ea2:	a3 80 50 81 00       	mov    %eax,0x815080
  800ea7:	83 c4 10             	add    $0x10,%esp
}
  800eaa:	c9                   	leave  
  800eab:	c3                   	ret    

00800eac <lwip_accept>:
 * Exceptions are documented!
 */

int
lwip_accept(int s, struct sockaddr *addr, socklen_t *addrlen)
{
  800eac:	55                   	push   %ebp
  800ead:	89 e5                	mov    %esp,%ebp
  800eaf:	57                   	push   %edi
  800eb0:	56                   	push   %esi
  800eb1:	53                   	push   %ebx
  800eb2:	83 ec 3c             	sub    $0x3c,%esp
  800eb5:	8b 7d 10             	mov    0x10(%ebp),%edi
  int newsock;
  struct sockaddr_in sin;
  err_t err;

  LWIP_DEBUGF(SOCKETS_DEBUG, ("lwip_accept(%d)...\n", s));
  sock = get_socket(s);
  800eb8:	8b 45 08             	mov    0x8(%ebp),%eax
  800ebb:	e8 f4 f8 ff ff       	call   8007b4 <get_socket>
  800ec0:	89 c6                	mov    %eax,%esi
  if (!sock)
  800ec2:	85 c0                	test   %eax,%eax
  800ec4:	0f 84 84 01 00 00    	je     80104e <lwip_accept+0x1a2>
    return -1;

  newconn = netconn_accept(sock->conn);
  800eca:	83 ec 0c             	sub    $0xc,%esp
  800ecd:	ff 30                	pushl  (%eax)
  800ecf:	e8 1c 9f 00 00       	call   80adf0 <netconn_accept>
  800ed4:	89 c3                	mov    %eax,%ebx
  if (!newconn) {
  800ed6:	83 c4 10             	add    $0x10,%esp
  800ed9:	85 c0                	test   %eax,%eax
  800edb:	75 2c                	jne    800f09 <lwip_accept+0x5d>
    LWIP_DEBUGF(SOCKETS_DEBUG, ("lwip_accept(%d) failed, err=%d\n", s, sock->conn->err));
    sock_set_errno(sock, err_to_errno(sock->conn->err));
  800edd:	8b 06                	mov    (%esi),%eax
  800edf:	0f be 40 0c          	movsbl 0xc(%eax),%eax
  800ee3:	f7 d8                	neg    %eax
  800ee5:	ba 05 00 00 00       	mov    $0x5,%edx
  800eea:	83 f8 0e             	cmp    $0xe,%eax
  800eed:	77 07                	ja     800ef6 <lwip_accept+0x4a>
  800eef:	8b 14 85 20 10 81 00 	mov    0x811020(,%eax,4),%edx
  800ef6:	89 56 10             	mov    %edx,0x10(%esi)
  800ef9:	89 15 20 b3 b3 00    	mov    %edx,0xb3b320
    return -1;
  800eff:	b8 ff ff ff ff       	mov    $0xffffffff,%eax
  800f04:	e9 4a 01 00 00       	jmp    801053 <lwip_accept+0x1a7>
  }

  /* get the IP address and port of the remote host */
  err = netconn_peer(newconn, &naddr, &port);
  800f09:	6a 00                	push   $0x0
  800f0b:	8d 45 e2             	lea    -0x1e(%ebp),%eax
  800f0e:	50                   	push   %eax
  800f0f:	8d 45 e4             	lea    -0x1c(%ebp),%eax
  800f12:	50                   	push   %eax
  800f13:	53                   	push   %ebx
  800f14:	e8 21 9d 00 00       	call   80ac3a <netconn_getaddr>
  800f19:	88 45 c7             	mov    %al,-0x39(%ebp)
  if (err != ERR_OK) {
  800f1c:	83 c4 10             	add    $0x10,%esp
  800f1f:	84 c0                	test   %al,%al
  800f21:	74 36                	je     800f59 <lwip_accept+0xad>
    netconn_delete(newconn);
  800f23:	83 ec 0c             	sub    $0xc,%esp
  800f26:	53                   	push   %ebx
  800f27:	e8 a6 9c 00 00       	call   80abd2 <netconn_delete>
    sock_set_errno(sock, err_to_errno(err));
  800f2c:	0f be 45 c7          	movsbl -0x39(%ebp),%eax
  800f30:	f7 d8                	neg    %eax
  800f32:	83 c4 10             	add    $0x10,%esp
  800f35:	ba 05 00 00 00       	mov    $0x5,%edx
  800f3a:	83 f8 0e             	cmp    $0xe,%eax
  800f3d:	77 07                	ja     800f46 <lwip_accept+0x9a>
  800f3f:	8b 14 85 20 10 81 00 	mov    0x811020(,%eax,4),%edx
  800f46:	89 56 10             	mov    %edx,0x10(%esi)
  800f49:	89 15 20 b3 b3 00    	mov    %edx,0xb3b320
    return -1;
  800f4f:	b8 ff ff ff ff       	mov    $0xffffffff,%eax
  800f54:	e9 fa 00 00 00       	jmp    801053 <lwip_accept+0x1a7>
  }

  memset(&sin, 0, sizeof(sin));
  800f59:	83 ec 04             	sub    $0x4,%esp
  800f5c:	6a 10                	push   $0x10
  800f5e:	6a 00                	push   $0x0
  800f60:	8d 45 d0             	lea    -0x30(%ebp),%eax
  800f63:	50                   	push   %eax
  800f64:	e8 1d dc 00 00       	call   80eb86 <memset>
  sin.sin_len = sizeof(sin);
  800f69:	c6 45 d0 10          	movb   $0x10,-0x30(%ebp)
  sin.sin_family = AF_INET;
  800f6d:	c6 45 d1 02          	movb   $0x2,-0x2f(%ebp)
  sin.sin_port = htons(port);
  800f71:	0f b7 45 e2          	movzwl -0x1e(%ebp),%eax
  800f75:	89 04 24             	mov    %eax,(%esp)
  800f78:	e8 d0 66 00 00       	call   80764d <htons>
  800f7d:	66 89 45 d2          	mov    %ax,-0x2e(%ebp)
  sin.sin_addr.s_addr = naddr.addr;
  800f81:	8b 45 e4             	mov    -0x1c(%ebp),%eax
  800f84:	89 45 d4             	mov    %eax,-0x2c(%ebp)

  if (*addrlen > sizeof(sin))
  800f87:	83 c4 10             	add    $0x10,%esp
  800f8a:	83 3f 10             	cmpl   $0x10,(%edi)
  800f8d:	76 06                	jbe    800f95 <lwip_accept+0xe9>
    *addrlen = sizeof(sin);
  800f8f:	c7 07 10 00 00 00    	movl   $0x10,(%edi)

  SMEMCPY(addr, &sin, *addrlen);
  800f95:	83 ec 04             	sub    $0x4,%esp
  800f98:	ff 37                	pushl  (%edi)
  800f9a:	8d 45 d0             	lea    -0x30(%ebp),%eax
  800f9d:	50                   	push   %eax
  800f9e:	ff 75 0c             	pushl  0xc(%ebp)
  800fa1:	e8 95 dc 00 00       	call   80ec3b <memcpy>

  newsock = alloc_socket(newconn);
  800fa6:	89 d8                	mov    %ebx,%eax
  800fa8:	e8 9f fb ff ff       	call   800b4c <alloc_socket>
  800fad:	89 c7                	mov    %eax,%edi
  if (newsock == -1) {
  800faf:	83 c4 10             	add    $0x10,%esp
  800fb2:	83 f8 ff             	cmp    $0xffffffff,%eax
  800fb5:	75 24                	jne    800fdb <lwip_accept+0x12f>
    netconn_delete(newconn);
  800fb7:	83 ec 0c             	sub    $0xc,%esp
  800fba:	53                   	push   %ebx
  800fbb:	e8 12 9c 00 00       	call   80abd2 <netconn_delete>
    sock_set_errno(sock, ENFILE);
  800fc0:	c7 46 10 17 00 00 00 	movl   $0x17,0x10(%esi)
  800fc7:	c7 05 20 b3 b3 00 17 	movl   $0x17,0xb3b320
  800fce:	00 00 00 
    return -1;
  800fd1:	83 c4 10             	add    $0x10,%esp
  800fd4:	b8 ff ff ff ff       	mov    $0xffffffff,%eax
  800fd9:	eb 78                	jmp    801053 <lwip_accept+0x1a7>
  }
  LWIP_ASSERT("invalid socket index", (newsock >= 0) && (newsock < NUM_SOCKETS));
  800fdb:	83 f8 1f             	cmp    $0x1f,%eax
  800fde:	76 17                	jbe    800ff7 <lwip_accept+0x14b>
  800fe0:	83 ec 04             	sub    $0x4,%esp
  800fe3:	68 91 0f 81 00       	push   $0x810f91
  800fe8:	68 25 01 00 00       	push   $0x125
  800fed:	68 6e 0f 81 00       	push   $0x810f6e
  800ff2:	e8 ea d3 00 00       	call   80e3e1 <_panic>
  newconn->callback = event_callback;
  800ff7:	c7 43 2c ac 09 80 00 	movl   $0x8009ac,0x2c(%ebx)
  nsock = &sockets[newsock];
  LWIP_ASSERT("invalid socket pointer", nsock != NULL);

  sys_sem_wait(socksem);
  800ffe:	83 ec 0c             	sub    $0xc,%esp
  801001:	ff 35 84 50 81 00    	pushl  0x815084
  801007:	e8 a6 40 00 00       	call   8050b2 <sys_sem_wait>
  /* See event_callback: If data comes in right away after an accept, even
   * though the server task might not have created a new socket yet.
   * In that case, newconn->socket is counted down (newconn->socket--),
   * so nsock->rcvevent is >= 1 here!
   */
  nsock->rcvevent += -1 - newconn->socket;
  80100c:	8d 04 bf             	lea    (%edi,%edi,4),%eax
  80100f:	8d 14 85 c0 50 81 00 	lea    0x8150c0(,%eax,4),%edx
  801016:	0f b7 42 0a          	movzwl 0xa(%edx),%eax
  80101a:	83 e8 01             	sub    $0x1,%eax
  80101d:	66 2b 43 1c          	sub    0x1c(%ebx),%ax
  801021:	66 89 42 0a          	mov    %ax,0xa(%edx)
  newconn->socket = newsock;
  801025:	89 7b 1c             	mov    %edi,0x1c(%ebx)
  sys_sem_signal(socksem);
  801028:	83 c4 04             	add    $0x4,%esp
  80102b:	ff 35 84 50 81 00    	pushl  0x815084
  801031:	e8 65 8f 00 00       	call   809f9b <sys_sem_signal>

  LWIP_DEBUGF(SOCKETS_DEBUG, ("lwip_accept(%d) returning new sock=%d addr=", s, newsock));
  //ip_addr_debug_print(SOCKETS_DEBUG, &naddr);
  LWIP_DEBUGF(SOCKETS_DEBUG, (" port=%u\n", port));

  sock_set_errno(sock, 0);
  801036:	c7 46 10 00 00 00 00 	movl   $0x0,0x10(%esi)
  80103d:	c7 05 20 b3 b3 00 00 	movl   $0x0,0xb3b320
  801044:	00 00 00 
  return newsock;
  801047:	83 c4 10             	add    $0x10,%esp
  80104a:	89 f8                	mov    %edi,%eax
  80104c:	eb 05                	jmp    801053 <lwip_accept+0x1a7>
  err_t err;

  LWIP_DEBUGF(SOCKETS_DEBUG, ("lwip_accept(%d)...\n", s));
  sock = get_socket(s);
  if (!sock)
    return -1;
  80104e:	b8 ff ff ff ff       	mov    $0xffffffff,%eax
  //ip_addr_debug_print(SOCKETS_DEBUG, &naddr);
  LWIP_DEBUGF(SOCKETS_DEBUG, (" port=%u\n", port));

  sock_set_errno(sock, 0);
  return newsock;
}
  801053:	8d 65 f4             	lea    -0xc(%ebp),%esp
  801056:	5b                   	pop    %ebx
  801057:	5e                   	pop    %esi
  801058:	5f                   	pop    %edi
  801059:	5d                   	pop    %ebp
  80105a:	c3                   	ret    

0080105b <lwip_bind>:

int
lwip_bind(int s, struct sockaddr *name, socklen_t namelen)
{
  80105b:	55                   	push   %ebp
  80105c:	89 e5                	mov    %esp,%ebp
  80105e:	56                   	push   %esi
  80105f:	53                   	push   %ebx
  801060:	83 ec 10             	sub    $0x10,%esp
  801063:	8b 75 0c             	mov    0xc(%ebp),%esi
  struct lwip_socket *sock;
  struct ip_addr local_addr;
  u16_t local_port;
  err_t err;

  sock = get_socket(s);
  801066:	8b 45 08             	mov    0x8(%ebp),%eax
  801069:	e8 46 f7 ff ff       	call   8007b4 <get_socket>
  80106e:	89 c3                	mov    %eax,%ebx
  if (!sock)
  801070:	85 c0                	test   %eax,%eax
  801072:	0f 84 8d 00 00 00    	je     801105 <lwip_bind+0xaa>
    return -1;

  LWIP_ERROR("lwip_bind: invalid address", ((namelen == sizeof(struct sockaddr_in)) &&
  801078:	83 7d 10 10          	cmpl   $0x10,0x10(%ebp)
  80107c:	75 06                	jne    801084 <lwip_bind+0x29>
  80107e:	80 7e 01 02          	cmpb   $0x2,0x1(%esi)
  801082:	74 17                	je     80109b <lwip_bind+0x40>
  801084:	83 ec 04             	sub    $0x4,%esp
  801087:	68 a6 0f 81 00       	push   $0x810fa6
  80108c:	68 4a 01 00 00       	push   $0x14a
  801091:	68 6e 0f 81 00       	push   $0x810f6e
  801096:	e8 46 d3 00 00       	call   80e3e1 <_panic>
             ((((struct sockaddr_in *)name)->sin_family) == AF_INET)),
             sock_set_errno(sock, err_to_errno(ERR_ARG)); return -1;);

  local_addr.addr = ((struct sockaddr_in *)name)->sin_addr.s_addr;
  80109b:	8b 46 04             	mov    0x4(%esi),%eax
  80109e:	89 45 f4             	mov    %eax,-0xc(%ebp)

  LWIP_DEBUGF(SOCKETS_DEBUG, ("lwip_bind(%d, addr=", s));
  //ip_addr_debug_print(SOCKETS_DEBUG, &local_addr);
  LWIP_DEBUGF(SOCKETS_DEBUG, (" port=%u)\n", ntohs(local_port)));

  err = netconn_bind(sock->conn, &local_addr, ntohs(local_port));
  8010a1:	83 ec 0c             	sub    $0xc,%esp
  8010a4:	0f b7 46 02          	movzwl 0x2(%esi),%eax
  8010a8:	50                   	push   %eax
  8010a9:	e8 ac 65 00 00       	call   80765a <ntohs>
  8010ae:	83 c4 0c             	add    $0xc,%esp
  8010b1:	0f b7 c0             	movzwl %ax,%eax
  8010b4:	50                   	push   %eax
  8010b5:	8d 45 f4             	lea    -0xc(%ebp),%eax
  8010b8:	50                   	push   %eax
  8010b9:	ff 33                	pushl  (%ebx)
  8010bb:	e8 06 9c 00 00       	call   80acc6 <netconn_bind>

  if (err != ERR_OK) {
  8010c0:	83 c4 10             	add    $0x10,%esp
  8010c3:	84 c0                	test   %al,%al
  8010c5:	74 26                	je     8010ed <lwip_bind+0x92>
    LWIP_DEBUGF(SOCKETS_DEBUG, ("lwip_bind(%d) failed, err=%d\n", s, err));
    sock_set_errno(sock, err_to_errno(err));
  8010c7:	0f be c0             	movsbl %al,%eax
  8010ca:	f7 d8                	neg    %eax
  8010cc:	ba 05 00 00 00       	mov    $0x5,%edx
  8010d1:	83 f8 0e             	cmp    $0xe,%eax
  8010d4:	77 07                	ja     8010dd <lwip_bind+0x82>
  8010d6:	8b 14 85 20 10 81 00 	mov    0x811020(,%eax,4),%edx
  8010dd:	89 53 10             	mov    %edx,0x10(%ebx)
  8010e0:	89 15 20 b3 b3 00    	mov    %edx,0xb3b320
    return -1;
  8010e6:	b8 ff ff ff ff       	mov    $0xffffffff,%eax
  8010eb:	eb 1d                	jmp    80110a <lwip_bind+0xaf>
  }

  LWIP_DEBUGF(SOCKETS_DEBUG, ("lwip_bind(%d) succeeded\n", s));
  sock_set_errno(sock, 0);
  8010ed:	c7 43 10 00 00 00 00 	movl   $0x0,0x10(%ebx)
  8010f4:	c7 05 20 b3 b3 00 00 	movl   $0x0,0xb3b320
  8010fb:	00 00 00 
  return 0;
  8010fe:	b8 00 00 00 00       	mov    $0x0,%eax
  801103:	eb 05                	jmp    80110a <lwip_bind+0xaf>
  u16_t local_port;
  err_t err;

  sock = get_socket(s);
  if (!sock)
    return -1;
  801105:	b8 ff ff ff ff       	mov    $0xffffffff,%eax
  }

  LWIP_DEBUGF(SOCKETS_DEBUG, ("lwip_bind(%d) succeeded\n", s));
  sock_set_errno(sock, 0);
  return 0;
}
  80110a:	8d 65 f8             	lea    -0x8(%ebp),%esp
  80110d:	5b                   	pop    %ebx
  80110e:	5e                   	pop    %esi
  80110f:	5d                   	pop    %ebp
  801110:	c3                   	ret    

00801111 <lwip_close>:

int
lwip_close(int s)
{
  801111:	55                   	push   %ebp
  801112:	89 e5                	mov    %esp,%ebp
  801114:	53                   	push   %ebx
  801115:	83 ec 04             	sub    $0x4,%esp
  struct lwip_socket *sock;

  LWIP_DEBUGF(SOCKETS_DEBUG, ("lwip_close(%d)\n", s));

  sock = get_socket(s);
  801118:	8b 45 08             	mov    0x8(%ebp),%eax
  80111b:	e8 94 f6 ff ff       	call   8007b4 <get_socket>
  801120:	89 c3                	mov    %eax,%ebx
  if (!sock) {
  801122:	85 c0                	test   %eax,%eax
  801124:	74 6a                	je     801190 <lwip_close+0x7f>
    return -1;
  }

  netconn_delete(sock->conn);
  801126:	83 ec 0c             	sub    $0xc,%esp
  801129:	ff 30                	pushl  (%eax)
  80112b:	e8 a2 9a 00 00       	call   80abd2 <netconn_delete>

  sys_sem_wait(socksem);
  801130:	83 c4 04             	add    $0x4,%esp
  801133:	ff 35 84 50 81 00    	pushl  0x815084
  801139:	e8 74 3f 00 00       	call   8050b2 <sys_sem_wait>
  if (sock->lastdata) {
  80113e:	8b 43 04             	mov    0x4(%ebx),%eax
  801141:	83 c4 10             	add    $0x10,%esp
  801144:	85 c0                	test   %eax,%eax
  801146:	74 0c                	je     801154 <lwip_close+0x43>
    netbuf_delete(sock->lastdata);
  801148:	83 ec 0c             	sub    $0xc,%esp
  80114b:	50                   	push   %eax
  80114c:	e8 77 13 00 00       	call   8024c8 <netbuf_delete>
  801151:	83 c4 10             	add    $0x10,%esp
  }
  sock->lastdata   = NULL;
  801154:	c7 43 04 00 00 00 00 	movl   $0x0,0x4(%ebx)
  sock->lastoffset = 0;
  80115b:	66 c7 43 08 00 00    	movw   $0x0,0x8(%ebx)
  sock->conn       = NULL;
  801161:	c7 03 00 00 00 00    	movl   $0x0,(%ebx)
  sock_set_errno(sock, 0);
  801167:	c7 43 10 00 00 00 00 	movl   $0x0,0x10(%ebx)
  80116e:	c7 05 20 b3 b3 00 00 	movl   $0x0,0xb3b320
  801175:	00 00 00 
  sys_sem_signal(socksem);
  801178:	83 ec 0c             	sub    $0xc,%esp
  80117b:	ff 35 84 50 81 00    	pushl  0x815084
  801181:	e8 15 8e 00 00       	call   809f9b <sys_sem_signal>
  return 0;
  801186:	83 c4 10             	add    $0x10,%esp
  801189:	b8 00 00 00 00       	mov    $0x0,%eax
  80118e:	eb 05                	jmp    801195 <lwip_close+0x84>

  LWIP_DEBUGF(SOCKETS_DEBUG, ("lwip_close(%d)\n", s));

  sock = get_socket(s);
  if (!sock) {
    return -1;
  801190:	b8 ff ff ff ff       	mov    $0xffffffff,%eax
  sock->lastoffset = 0;
  sock->conn       = NULL;
  sock_set_errno(sock, 0);
  sys_sem_signal(socksem);
  return 0;
}
  801195:	8b 5d fc             	mov    -0x4(%ebp),%ebx
  801198:	c9                   	leave  
  801199:	c3                   	ret    

0080119a <lwip_connect>:

int
lwip_connect(int s, const struct sockaddr *name, socklen_t namelen)
{
  80119a:	55                   	push   %ebp
  80119b:	89 e5                	mov    %esp,%ebp
  80119d:	56                   	push   %esi
  80119e:	53                   	push   %ebx
  80119f:	83 ec 10             	sub    $0x10,%esp
  8011a2:	8b 75 0c             	mov    0xc(%ebp),%esi
  struct lwip_socket *sock;
  err_t err;

  sock = get_socket(s);
  8011a5:	8b 45 08             	mov    0x8(%ebp),%eax
  8011a8:	e8 07 f6 ff ff       	call   8007b4 <get_socket>
  8011ad:	89 c3                	mov    %eax,%ebx
  if (!sock)
  8011af:	85 c0                	test   %eax,%eax
  8011b1:	0f 84 8d 00 00 00    	je     801244 <lwip_connect+0xaa>
    return -1;

  LWIP_ERROR("lwip_connect: invalid address", ((namelen == sizeof(struct sockaddr_in)) &&
  8011b7:	83 7d 10 10          	cmpl   $0x10,0x10(%ebp)
  8011bb:	75 06                	jne    8011c3 <lwip_connect+0x29>
  8011bd:	80 7e 01 02          	cmpb   $0x2,0x1(%esi)
  8011c1:	74 17                	je     8011da <lwip_connect+0x40>
  8011c3:	83 ec 04             	sub    $0x4,%esp
  8011c6:	68 c1 0f 81 00       	push   $0x810fc1
  8011cb:	68 86 01 00 00       	push   $0x186
  8011d0:	68 6e 0f 81 00       	push   $0x810f6e
  8011d5:	e8 07 d2 00 00       	call   80e3e1 <_panic>
    err = netconn_disconnect(sock->conn);
  } else {
    struct ip_addr remote_addr;
    u16_t remote_port;

    remote_addr.addr = ((struct sockaddr_in *)name)->sin_addr.s_addr;
  8011da:	8b 46 04             	mov    0x4(%esi),%eax
  8011dd:	89 45 f4             	mov    %eax,-0xc(%ebp)

    LWIP_DEBUGF(SOCKETS_DEBUG, ("lwip_connect(%d, addr=", s));
    //ip_addr_debug_print(SOCKETS_DEBUG, &remote_addr);
    LWIP_DEBUGF(SOCKETS_DEBUG, (" port=%u)\n", ntohs(remote_port)));

    err = netconn_connect(sock->conn, &remote_addr, ntohs(remote_port));
  8011e0:	83 ec 0c             	sub    $0xc,%esp
  8011e3:	0f b7 46 02          	movzwl 0x2(%esi),%eax
  8011e7:	50                   	push   %eax
  8011e8:	e8 6d 64 00 00       	call   80765a <ntohs>
  8011ed:	83 c4 0c             	add    $0xc,%esp
  8011f0:	0f b7 c0             	movzwl %ax,%eax
  8011f3:	50                   	push   %eax
  8011f4:	8d 45 f4             	lea    -0xc(%ebp),%eax
  8011f7:	50                   	push   %eax
  8011f8:	ff 33                	pushl  (%ebx)
  8011fa:	e8 18 9b 00 00       	call   80ad17 <netconn_connect>
  }

  if (err != ERR_OK) {
  8011ff:	83 c4 10             	add    $0x10,%esp
  801202:	84 c0                	test   %al,%al
  801204:	74 26                	je     80122c <lwip_connect+0x92>
    LWIP_DEBUGF(SOCKETS_DEBUG, ("lwip_connect(%d) failed, err=%d\n", s, err));
    sock_set_errno(sock, err_to_errno(err));
  801206:	0f be c0             	movsbl %al,%eax
  801209:	f7 d8                	neg    %eax
  80120b:	ba 05 00 00 00       	mov    $0x5,%edx
  801210:	83 f8 0e             	cmp    $0xe,%eax
  801213:	77 07                	ja     80121c <lwip_connect+0x82>
  801215:	8b 14 85 20 10 81 00 	mov    0x811020(,%eax,4),%edx
  80121c:	89 53 10             	mov    %edx,0x10(%ebx)
  80121f:	89 15 20 b3 b3 00    	mov    %edx,0xb3b320
    return -1;
  801225:	b8 ff ff ff ff       	mov    $0xffffffff,%eax
  80122a:	eb 1d                	jmp    801249 <lwip_connect+0xaf>
  }

  LWIP_DEBUGF(SOCKETS_DEBUG, ("lwip_connect(%d) succeeded\n", s));
  sock_set_errno(sock, 0);
  80122c:	c7 43 10 00 00 00 00 	movl   $0x0,0x10(%ebx)
  801233:	c7 05 20 b3 b3 00 00 	movl   $0x0,0xb3b320
  80123a:	00 00 00 
  return 0;
  80123d:	b8 00 00 00 00       	mov    $0x0,%eax
  801242:	eb 05                	jmp    801249 <lwip_connect+0xaf>
  struct lwip_socket *sock;
  err_t err;

  sock = get_socket(s);
  if (!sock)
    return -1;
  801244:	b8 ff ff ff ff       	mov    $0xffffffff,%eax
  }

  LWIP_DEBUGF(SOCKETS_DEBUG, ("lwip_connect(%d) succeeded\n", s));
  sock_set_errno(sock, 0);
  return 0;
}
  801249:	8d 65 f8             	lea    -0x8(%ebp),%esp
  80124c:	5b                   	pop    %ebx
  80124d:	5e                   	pop    %esi
  80124e:	5d                   	pop    %ebp
  80124f:	c3                   	ret    

00801250 <lwip_listen>:
 * @param backlog (ATTENTION: need TCP_LISTEN_BACKLOG=1)
 * @return 0 on success, non-zero on failure
 */
int
lwip_listen(int s, int backlog)
{
  801250:	55                   	push   %ebp
  801251:	89 e5                	mov    %esp,%ebp
  801253:	56                   	push   %esi
  801254:	53                   	push   %ebx
  801255:	8b 5d 0c             	mov    0xc(%ebp),%ebx
  struct lwip_socket *sock;
  err_t err;

  LWIP_DEBUGF(SOCKETS_DEBUG, ("lwip_listen(%d, backlog=%d)\n", s, backlog));

  sock = get_socket(s);
  801258:	8b 45 08             	mov    0x8(%ebp),%eax
  80125b:	e8 54 f5 ff ff       	call   8007b4 <get_socket>
  801260:	89 c6                	mov    %eax,%esi
  if (!sock)
  801262:	85 c0                	test   %eax,%eax
  801264:	74 68                	je     8012ce <lwip_listen+0x7e>
  801266:	85 db                	test   %ebx,%ebx
  801268:	b8 00 00 00 00       	mov    $0x0,%eax
  80126d:	0f 48 d8             	cmovs  %eax,%ebx
  }
  if (backlog > 0xff) {
    backlog = 0xff;
  }

  err = netconn_listen_with_backlog(sock->conn, backlog);
  801270:	83 ec 08             	sub    $0x8,%esp
  801273:	81 fb ff 00 00 00    	cmp    $0xff,%ebx
  801279:	b0 ff                	mov    $0xff,%al
  80127b:	0f 4f d8             	cmovg  %eax,%ebx
  80127e:	0f b6 db             	movzbl %bl,%ebx
  801281:	53                   	push   %ebx
  801282:	ff 36                	pushl  (%esi)
  801284:	e8 23 9b 00 00       	call   80adac <netconn_listen_with_backlog>

  if (err != ERR_OK) {
  801289:	83 c4 10             	add    $0x10,%esp
  80128c:	84 c0                	test   %al,%al
  80128e:	74 26                	je     8012b6 <lwip_listen+0x66>
    LWIP_DEBUGF(SOCKETS_DEBUG, ("lwip_listen(%d) failed, err=%d\n", s, err));
    sock_set_errno(sock, err_to_errno(err));
  801290:	0f be c0             	movsbl %al,%eax
  801293:	f7 d8                	neg    %eax
  801295:	ba 05 00 00 00       	mov    $0x5,%edx
  80129a:	83 f8 0e             	cmp    $0xe,%eax
  80129d:	77 07                	ja     8012a6 <lwip_listen+0x56>
  80129f:	8b 14 85 20 10 81 00 	mov    0x811020(,%eax,4),%edx
  8012a6:	89 56 10             	mov    %edx,0x10(%esi)
  8012a9:	89 15 20 b3 b3 00    	mov    %edx,0xb3b320
    return -1;
  8012af:	b8 ff ff ff ff       	mov    $0xffffffff,%eax
  8012b4:	eb 1d                	jmp    8012d3 <lwip_listen+0x83>
  }

  sock_set_errno(sock, 0);
  8012b6:	c7 46 10 00 00 00 00 	movl   $0x0,0x10(%esi)
  8012bd:	c7 05 20 b3 b3 00 00 	movl   $0x0,0xb3b320
  8012c4:	00 00 00 
  return 0;
  8012c7:	b8 00 00 00 00       	mov    $0x0,%eax
  8012cc:	eb 05                	jmp    8012d3 <lwip_listen+0x83>

  LWIP_DEBUGF(SOCKETS_DEBUG, ("lwip_listen(%d, backlog=%d)\n", s, backlog));

  sock = get_socket(s);
  if (!sock)
    return -1;
  8012ce:	b8 ff ff ff ff       	mov    $0xffffffff,%eax
    return -1;
  }

  sock_set_errno(sock, 0);
  return 0;
}
  8012d3:	8d 65 f8             	lea    -0x8(%ebp),%esp
  8012d6:	5b                   	pop    %ebx
  8012d7:	5e                   	pop    %esi
  8012d8:	5d                   	pop    %ebp
  8012d9:	c3                   	ret    

008012da <lwip_recvfrom>:

int
lwip_recvfrom(int s, void *mem, int len, unsigned int flags,
        struct sockaddr *from, socklen_t *fromlen)
{
  8012da:	55                   	push   %ebp
  8012db:	89 e5                	mov    %esp,%ebp
  8012dd:	57                   	push   %edi
  8012de:	56                   	push   %esi
  8012df:	53                   	push   %ebx
  8012e0:	83 ec 4c             	sub    $0x4c,%esp
  8012e3:	8b 5d 14             	mov    0x14(%ebp),%ebx
  struct ip_addr     *addr;
  u16_t               port;
  u8_t                done = 0;

  LWIP_DEBUGF(SOCKETS_DEBUG, ("lwip_recvfrom(%d, %p, %d, 0x%x, ..)\n", s, mem, len, flags));
  sock = get_socket(s);
  8012e6:	8b 45 08             	mov    0x8(%ebp),%eax
  8012e9:	e8 c6 f4 ff ff       	call   8007b4 <get_socket>
  8012ee:	89 c7                	mov    %eax,%edi
  if (!sock)
  8012f0:	85 c0                	test   %eax,%eax
  8012f2:	0f 84 02 02 00 00    	je     8014fa <lwip_recvfrom+0x220>
  8012f8:	66 c7 45 c4 00 00    	movw   $0x0,-0x3c(%ebp)
    /* Check if there is data left from the last recv operation. */
    if (sock->lastdata) {
      buf = sock->lastdata;
    } else {
      /* If this is non-blocking call, then check first */
      if (((flags & MSG_DONTWAIT) || (sock->flags & O_NONBLOCK)) && !sock->rcvevent) {
  8012fe:	89 d8                	mov    %ebx,%eax
  801300:	83 e0 08             	and    $0x8,%eax
  801303:	89 45 b4             	mov    %eax,-0x4c(%ebp)
    } else {
      done = 1;
    }

    /* If we don't peek the incoming message... */
    if ((flags & MSG_PEEK)==0) {
  801306:	83 e3 01             	and    $0x1,%ebx
  801309:	89 5d b8             	mov    %ebx,-0x48(%ebp)
    return -1;

  do {
    LWIP_DEBUGF(SOCKETS_DEBUG, ("lwip_recvfrom: top while sock->lastdata=%p\n", (void*)sock->lastdata));
    /* Check if there is data left from the last recv operation. */
    if (sock->lastdata) {
  80130c:	8b 77 04             	mov    0x4(%edi),%esi
  80130f:	85 f6                	test   %esi,%esi
  801311:	0f 85 80 00 00 00    	jne    801397 <lwip_recvfrom+0xbd>
      buf = sock->lastdata;
    } else {
      /* If this is non-blocking call, then check first */
      if (((flags & MSG_DONTWAIT) || (sock->flags & O_NONBLOCK)) && !sock->rcvevent) {
  801317:	83 7d b4 00          	cmpl   $0x0,-0x4c(%ebp)
  80131b:	75 06                	jne    801323 <lwip_recvfrom+0x49>
  80131d:	f6 47 0f 08          	testb  $0x8,0xf(%edi)
  801321:	74 22                	je     801345 <lwip_recvfrom+0x6b>
  801323:	66 83 7f 0a 00       	cmpw   $0x0,0xa(%edi)
  801328:	75 1b                	jne    801345 <lwip_recvfrom+0x6b>
        LWIP_DEBUGF(SOCKETS_DEBUG, ("lwip_recvfrom(%d): returning EWOULDBLOCK\n", s));
        sock_set_errno(sock, EWOULDBLOCK);
  80132a:	c7 47 10 0b 00 00 00 	movl   $0xb,0x10(%edi)
  801331:	c7 05 20 b3 b3 00 0b 	movl   $0xb,0xb3b320
  801338:	00 00 00 
        return -1;
  80133b:	b8 ff ff ff ff       	mov    $0xffffffff,%eax
  801340:	e9 ba 01 00 00       	jmp    8014ff <lwip_recvfrom+0x225>
      }

      /* No data was left from the previous operation, so we try to get
      some from the network. */
      sock->lastdata = buf = netconn_recv(sock->conn);
  801345:	83 ec 0c             	sub    $0xc,%esp
  801348:	ff 37                	pushl  (%edi)
  80134a:	e8 13 9b 00 00       	call   80ae62 <netconn_recv>
  80134f:	89 c6                	mov    %eax,%esi
  801351:	89 47 04             	mov    %eax,0x4(%edi)
      LWIP_DEBUGF(SOCKETS_DEBUG, ("lwip_recvfrom: netconn_recv netbuf=%p\n", (void*)buf));

      if (!buf) {
  801354:	83 c4 10             	add    $0x10,%esp
  801357:	85 c0                	test   %eax,%eax
  801359:	75 3c                	jne    801397 <lwip_recvfrom+0xbd>
        /* We should really do some error checking here. */
        LWIP_DEBUGF(SOCKETS_DEBUG, ("lwip_recvfrom(%d): buf == NULL!\n", s));
        sock_set_errno(sock, (((sock->conn->pcb.ip!=NULL) && (sock->conn->err==ERR_OK))?ETIMEDOUT:err_to_errno(sock->conn->err)));
  80135b:	8b 17                	mov    (%edi),%edx
  80135d:	83 7a 08 00          	cmpl   $0x0,0x8(%edx)
  801361:	74 0b                	je     80136e <lwip_recvfrom+0x94>
  801363:	b8 6e 00 00 00       	mov    $0x6e,%eax
  801368:	80 7a 0c 00          	cmpb   $0x0,0xc(%edx)
  80136c:	74 17                	je     801385 <lwip_recvfrom+0xab>
  80136e:	0f be 52 0c          	movsbl 0xc(%edx),%edx
  801372:	f7 da                	neg    %edx
  801374:	b8 05 00 00 00       	mov    $0x5,%eax
  801379:	83 fa 0e             	cmp    $0xe,%edx
  80137c:	77 07                	ja     801385 <lwip_recvfrom+0xab>
  80137e:	8b 04 95 20 10 81 00 	mov    0x811020(,%edx,4),%eax
  801385:	89 47 10             	mov    %eax,0x10(%edi)
  801388:	a3 20 b3 b3 00       	mov    %eax,0xb3b320
        return 0;
  80138d:	b8 00 00 00 00       	mov    $0x0,%eax
  801392:	e9 68 01 00 00       	jmp    8014ff <lwip_recvfrom+0x225>
      }
    }

    buflen = netbuf_len(buf);
  801397:	8b 16                	mov    (%esi),%edx
    LWIP_DEBUGF(SOCKETS_DEBUG, ("lwip_recvfrom: buflen=%d len=%d off=%d sock->lastoffset=%d\n", buflen, len, off, sock->lastoffset));

    buflen -= sock->lastoffset;
  801399:	0f b7 47 08          	movzwl 0x8(%edi),%eax
  80139d:	0f b7 5a 08          	movzwl 0x8(%edx),%ebx
  8013a1:	29 c3                	sub    %eax,%ebx

    if (len > buflen) {
  8013a3:	0f b7 cb             	movzwl %bx,%ecx
  8013a6:	89 4d bc             	mov    %ecx,-0x44(%ebp)
      copylen = buflen;
    } else {
      copylen = len;
  8013a9:	39 4d 10             	cmp    %ecx,0x10(%ebp)
  8013ac:	66 0f 4e 5d 10       	cmovle 0x10(%ebp),%bx
    }

    /* copy the contents of the received buffer into
    the supplied memory pointer mem */
    netbuf_copy_partial(buf, (u8_t*)mem + off, copylen, sock->lastoffset);
  8013b1:	0f b7 cb             	movzwl %bx,%ecx
  8013b4:	89 4d c0             	mov    %ecx,-0x40(%ebp)
  8013b7:	0f b7 c0             	movzwl %ax,%eax
  8013ba:	50                   	push   %eax
  8013bb:	51                   	push   %ecx
  8013bc:	0f b7 45 c4          	movzwl -0x3c(%ebp),%eax
  8013c0:	03 45 0c             	add    0xc(%ebp),%eax
  8013c3:	50                   	push   %eax
  8013c4:	52                   	push   %edx
  8013c5:	e8 7b 3b 00 00       	call   804f45 <pbuf_copy_partial>

    off += copylen;
  8013ca:	66 01 5d c4          	add    %bx,-0x3c(%ebp)

    if (netconn_type(sock->conn) == NETCONN_TCP) {
  8013ce:	83 c4 04             	add    $0x4,%esp
  8013d1:	ff 37                	pushl  (%edi)
  8013d3:	e8 3a 98 00 00       	call   80ac12 <netconn_type>
  8013d8:	83 c4 10             	add    $0x10,%esp
      len -= copylen;
      if ( (len <= 0) || (buf->p->flags & PBUF_FLAG_PUSH) || !sock->rcvevent) {
        done = 1;
      }
    } else {
      done = 1;
  8013db:	c6 45 c7 01          	movb   $0x1,-0x39(%ebp)
    the supplied memory pointer mem */
    netbuf_copy_partial(buf, (u8_t*)mem + off, copylen, sock->lastoffset);

    off += copylen;

    if (netconn_type(sock->conn) == NETCONN_TCP) {
  8013df:	83 f8 10             	cmp    $0x10,%eax
  8013e2:	75 1d                	jne    801401 <lwip_recvfrom+0x127>
      len -= copylen;
  8013e4:	8b 45 c0             	mov    -0x40(%ebp),%eax
  8013e7:	29 45 10             	sub    %eax,0x10(%ebp)
      if ( (len <= 0) || (buf->p->flags & PBUF_FLAG_PUSH) || !sock->rcvevent) {
  8013ea:	83 7d 10 00          	cmpl   $0x0,0x10(%ebp)
  8013ee:	7e 11                	jle    801401 <lwip_recvfrom+0x127>
  8013f0:	8b 06                	mov    (%esi),%eax
  8013f2:	f6 40 0d 01          	testb  $0x1,0xd(%eax)
  8013f6:	75 09                	jne    801401 <lwip_recvfrom+0x127>
  8013f8:	66 83 7f 0a 00       	cmpw   $0x0,0xa(%edi)
  8013fd:	0f 94 45 c7          	sete   -0x39(%ebp)
    } else {
      done = 1;
    }

    /* If we don't peek the incoming message... */
    if ((flags & MSG_PEEK)==0) {
  801401:	83 7d b8 00          	cmpl   $0x0,-0x48(%ebp)
  801405:	75 3d                	jne    801444 <lwip_recvfrom+0x16a>
      /* If this is a TCP socket, check if there is data left in the
         buffer. If so, it should be saved in the sock structure for next
         time around. */
      if ((sock->conn->type == NETCONN_TCP) && (buflen - copylen > 0)) {
  801407:	8b 07                	mov    (%edi),%eax
  801409:	83 38 10             	cmpl   $0x10,(%eax)
  80140c:	75 13                	jne    801421 <lwip_recvfrom+0x147>
  80140e:	8b 45 bc             	mov    -0x44(%ebp),%eax
  801411:	2b 45 c0             	sub    -0x40(%ebp),%eax
  801414:	85 c0                	test   %eax,%eax
  801416:	7e 09                	jle    801421 <lwip_recvfrom+0x147>
        sock->lastdata = buf;
  801418:	89 77 04             	mov    %esi,0x4(%edi)
        sock->lastoffset += copylen;
  80141b:	66 01 5f 08          	add    %bx,0x8(%edi)
        LWIP_DEBUGF(SOCKETS_DEBUG, ("lwip_recvfrom: lastdata now netbuf=%p\n", (void*)buf));
  80141f:	eb 19                	jmp    80143a <lwip_recvfrom+0x160>
      } else {
        sock->lastdata = NULL;
  801421:	c7 47 04 00 00 00 00 	movl   $0x0,0x4(%edi)
        sock->lastoffset = 0;
  801428:	66 c7 47 08 00 00    	movw   $0x0,0x8(%edi)
        LWIP_DEBUGF(SOCKETS_DEBUG, ("lwip_recvfrom: deleting netbuf=%p\n", (void*)buf));
        netbuf_delete(buf);
  80142e:	83 ec 0c             	sub    $0xc,%esp
  801431:	56                   	push   %esi
  801432:	e8 91 10 00 00       	call   8024c8 <netbuf_delete>
  801437:	83 c4 10             	add    $0x10,%esp
      }
    } else {
      done = 1;
    }
  } while (!done);
  80143a:	80 7d c7 00          	cmpb   $0x0,-0x39(%ebp)
  80143e:	0f 84 c8 fe ff ff    	je     80130c <lwip_recvfrom+0x32>

  /* Check to see from where the data was.*/
  if (from && fromlen) {
  801444:	83 7d 18 00          	cmpl   $0x0,0x18(%ebp)
  801448:	0f 84 95 00 00 00    	je     8014e3 <lwip_recvfrom+0x209>
  80144e:	83 7d 1c 00          	cmpl   $0x0,0x1c(%ebp)
  801452:	0f 84 8b 00 00 00    	je     8014e3 <lwip_recvfrom+0x209>
    struct sockaddr_in sin;

    if (netconn_type(sock->conn) == NETCONN_TCP) {
  801458:	83 ec 0c             	sub    $0xc,%esp
  80145b:	ff 37                	pushl  (%edi)
  80145d:	e8 b0 97 00 00       	call   80ac12 <netconn_type>
  801462:	83 c4 10             	add    $0x10,%esp
  801465:	83 f8 10             	cmp    $0x10,%eax
  801468:	75 19                	jne    801483 <lwip_recvfrom+0x1a9>
      addr = (struct ip_addr*)&(sin.sin_addr.s_addr);
      netconn_getaddr(sock->conn, addr, &port, 0);
  80146a:	6a 00                	push   $0x0
  80146c:	8d 45 e6             	lea    -0x1a(%ebp),%eax
  80146f:	50                   	push   %eax
  801470:	8d 45 d8             	lea    -0x28(%ebp),%eax
  801473:	50                   	push   %eax
  801474:	ff 37                	pushl  (%edi)
  801476:	e8 bf 97 00 00       	call   80ac3a <netconn_getaddr>
  80147b:	83 c4 10             	add    $0x10,%esp
  /* Check to see from where the data was.*/
  if (from && fromlen) {
    struct sockaddr_in sin;

    if (netconn_type(sock->conn) == NETCONN_TCP) {
      addr = (struct ip_addr*)&(sin.sin_addr.s_addr);
  80147e:	8d 5d d8             	lea    -0x28(%ebp),%ebx
  801481:	eb 0b                	jmp    80148e <lwip_recvfrom+0x1b4>
      netconn_getaddr(sock->conn, addr, &port, 0);
    } else {
      addr = netbuf_fromaddr(buf);
  801483:	8b 5e 08             	mov    0x8(%esi),%ebx
      port = netbuf_fromport(buf);
  801486:	0f b7 46 0c          	movzwl 0xc(%esi),%eax
  80148a:	66 89 45 e6          	mov    %ax,-0x1a(%ebp)
    }

    memset(&sin, 0, sizeof(sin));
  80148e:	83 ec 04             	sub    $0x4,%esp
  801491:	6a 10                	push   $0x10
  801493:	6a 00                	push   $0x0
  801495:	8d 45 d4             	lea    -0x2c(%ebp),%eax
  801498:	50                   	push   %eax
  801499:	e8 e8 d6 00 00       	call   80eb86 <memset>
    sin.sin_len = sizeof(sin);
  80149e:	c6 45 d4 10          	movb   $0x10,-0x2c(%ebp)
    sin.sin_family = AF_INET;
  8014a2:	c6 45 d5 02          	movb   $0x2,-0x2b(%ebp)
    sin.sin_port = htons(port);
  8014a6:	0f b7 45 e6          	movzwl -0x1a(%ebp),%eax
  8014aa:	89 04 24             	mov    %eax,(%esp)
  8014ad:	e8 9b 61 00 00       	call   80764d <htons>
  8014b2:	66 89 45 d6          	mov    %ax,-0x2a(%ebp)
    sin.sin_addr.s_addr = addr->addr;
  8014b6:	8b 03                	mov    (%ebx),%eax
  8014b8:	89 45 d8             	mov    %eax,-0x28(%ebp)

    if (*fromlen > sizeof(sin))
  8014bb:	83 c4 10             	add    $0x10,%esp
  8014be:	8b 45 1c             	mov    0x1c(%ebp),%eax
  8014c1:	83 38 10             	cmpl   $0x10,(%eax)
  8014c4:	76 06                	jbe    8014cc <lwip_recvfrom+0x1f2>
      *fromlen = sizeof(sin);
  8014c6:	c7 00 10 00 00 00    	movl   $0x10,(%eax)

    SMEMCPY(from, &sin, *fromlen);
  8014cc:	83 ec 04             	sub    $0x4,%esp
  8014cf:	8b 45 1c             	mov    0x1c(%ebp),%eax
  8014d2:	ff 30                	pushl  (%eax)
  8014d4:	8d 45 d4             	lea    -0x2c(%ebp),%eax
  8014d7:	50                   	push   %eax
  8014d8:	ff 75 18             	pushl  0x18(%ebp)
  8014db:	e8 5b d7 00 00       	call   80ec3b <memcpy>
  8014e0:	83 c4 10             	add    $0x10,%esp
    //ip_addr_debug_print(SOCKETS_DEBUG, addr);
    LWIP_DEBUGF(SOCKETS_DEBUG, (" port=%u len=%u\n", port, off));
#endif /*  SOCKETS_DEBUG */
  }

  sock_set_errno(sock, 0);
  8014e3:	c7 47 10 00 00 00 00 	movl   $0x0,0x10(%edi)
  8014ea:	c7 05 20 b3 b3 00 00 	movl   $0x0,0xb3b320
  8014f1:	00 00 00 
  return off;
  8014f4:	0f b7 45 c4          	movzwl -0x3c(%ebp),%eax
  8014f8:	eb 05                	jmp    8014ff <lwip_recvfrom+0x225>
  u8_t                done = 0;

  LWIP_DEBUGF(SOCKETS_DEBUG, ("lwip_recvfrom(%d, %p, %d, 0x%x, ..)\n", s, mem, len, flags));
  sock = get_socket(s);
  if (!sock)
    return -1;
  8014fa:	b8 ff ff ff ff       	mov    $0xffffffff,%eax
#endif /*  SOCKETS_DEBUG */
  }

  sock_set_errno(sock, 0);
  return off;
}
  8014ff:	8d 65 f4             	lea    -0xc(%ebp),%esp
  801502:	5b                   	pop    %ebx
  801503:	5e                   	pop    %esi
  801504:	5f                   	pop    %edi
  801505:	5d                   	pop    %ebp
  801506:	c3                   	ret    

00801507 <lwip_read>:

int
lwip_read(int s, void *mem, int len)
{
  801507:	55                   	push   %ebp
  801508:	89 e5                	mov    %esp,%ebp
  80150a:	83 ec 10             	sub    $0x10,%esp
  return lwip_recvfrom(s, mem, len, 0, NULL, NULL);
  80150d:	6a 00                	push   $0x0
  80150f:	6a 00                	push   $0x0
  801511:	6a 00                	push   $0x0
  801513:	ff 75 10             	pushl  0x10(%ebp)
  801516:	ff 75 0c             	pushl  0xc(%ebp)
  801519:	ff 75 08             	pushl  0x8(%ebp)
  80151c:	e8 b9 fd ff ff       	call   8012da <lwip_recvfrom>
}
  801521:	c9                   	leave  
  801522:	c3                   	ret    

00801523 <lwip_recv>:

int
lwip_recv(int s, void *mem, int len, unsigned int flags)
{
  801523:	55                   	push   %ebp
  801524:	89 e5                	mov    %esp,%ebp
  801526:	83 ec 10             	sub    $0x10,%esp
  return lwip_recvfrom(s, mem, len, flags, NULL, NULL);
  801529:	6a 00                	push   $0x0
  80152b:	6a 00                	push   $0x0
  80152d:	ff 75 14             	pushl  0x14(%ebp)
  801530:	ff 75 10             	pushl  0x10(%ebp)
  801533:	ff 75 0c             	pushl  0xc(%ebp)
  801536:	ff 75 08             	pushl  0x8(%ebp)
  801539:	e8 9c fd ff ff       	call   8012da <lwip_recvfrom>
}
  80153e:	c9                   	leave  
  80153f:	c3                   	ret    

00801540 <lwip_sendto>:
}

int
lwip_sendto(int s, const void *data, int size, unsigned int flags,
       struct sockaddr *to, socklen_t tolen)
{
  801540:	55                   	push   %ebp
  801541:	89 e5                	mov    %esp,%ebp
  801543:	57                   	push   %edi
  801544:	56                   	push   %esi
  801545:	53                   	push   %ebx
  801546:	83 ec 2c             	sub    $0x2c,%esp
  801549:	8b 5d 10             	mov    0x10(%ebp),%ebx
  80154c:	8b 7d 18             	mov    0x18(%ebp),%edi
#if !LWIP_TCPIP_CORE_LOCKING
  struct netbuf buf;
  u16_t remote_port;
#endif

  sock = get_socket(s);
  80154f:	8b 45 08             	mov    0x8(%ebp),%eax
  801552:	e8 5d f2 ff ff       	call   8007b4 <get_socket>
  801557:	89 c6                	mov    %eax,%esi
  if (!sock)
  801559:	85 c0                	test   %eax,%eax
  80155b:	0f 84 22 01 00 00    	je     801683 <lwip_sendto+0x143>
    return -1;

  if (sock->conn->type==NETCONN_TCP) {
  801561:	8b 00                	mov    (%eax),%eax
  801563:	83 38 10             	cmpl   $0x10,(%eax)
  801566:	75 17                	jne    80157f <lwip_sendto+0x3f>
#if LWIP_TCP
    return lwip_send(s, data, size, flags);
  801568:	ff 75 14             	pushl  0x14(%ebp)
  80156b:	53                   	push   %ebx
  80156c:	ff 75 0c             	pushl  0xc(%ebp)
  80156f:	ff 75 08             	pushl  0x8(%ebp)
  801572:	e8 19 01 00 00       	call   801690 <lwip_send>
  801577:	83 c4 10             	add    $0x10,%esp
  80157a:	e9 09 01 00 00       	jmp    801688 <lwip_sendto+0x148>
    sock_set_errno(sock, err_to_errno(ERR_ARG));
    return -1;
#endif /* LWIP_TCP */
  }

  LWIP_ASSERT("lwip_sendto: size must fit in u16_t",
  80157f:	81 fb ff ff 00 00    	cmp    $0xffff,%ebx
  801585:	76 17                	jbe    80159e <lwip_sendto+0x5e>
  801587:	83 ec 04             	sub    $0x4,%esp
  80158a:	68 fc 0f 81 00       	push   $0x810ffc
  80158f:	68 97 02 00 00       	push   $0x297
  801594:	68 6e 0f 81 00       	push   $0x810f6e
  801599:	e8 43 ce 00 00       	call   80e3e1 <_panic>
              ((size >= 0) && (size <= 0xffff)));
  LWIP_ERROR("lwip_sendto: invalid address", (((to == NULL) && (tolen == 0)) ||
  80159e:	85 ff                	test   %edi,%edi
  8015a0:	0f 95 c0             	setne  %al
  8015a3:	75 06                	jne    8015ab <lwip_sendto+0x6b>
  8015a5:	83 7d 1c 00          	cmpl   $0x0,0x1c(%ebp)
  8015a9:	74 23                	je     8015ce <lwip_sendto+0x8e>
  8015ab:	83 7d 1c 10          	cmpl   $0x10,0x1c(%ebp)
  8015af:	75 06                	jne    8015b7 <lwip_sendto+0x77>
  8015b1:	80 7f 01 02          	cmpb   $0x2,0x1(%edi)
  8015b5:	74 17                	je     8015ce <lwip_sendto+0x8e>
  8015b7:	83 ec 04             	sub    $0x4,%esp
  8015ba:	68 df 0f 81 00       	push   $0x810fdf
  8015bf:	68 9b 02 00 00       	push   $0x29b
  8015c4:	68 6e 0f 81 00       	push   $0x810f6e
  8015c9:	e8 13 ce 00 00       	call   80e3e1 <_panic>
      pbuf_free(p);
    }
  }
#else
  /* initialize a buffer */
  buf.p = buf.ptr = NULL;
  8015ce:	c7 45 d8 00 00 00 00 	movl   $0x0,-0x28(%ebp)
  8015d5:	c7 45 d4 00 00 00 00 	movl   $0x0,-0x2c(%ebp)
  if (to) {
  8015dc:	84 c0                	test   %al,%al
  8015de:	74 22                	je     801602 <lwip_sendto+0xc2>
    remote_addr.addr = ((struct sockaddr_in *)to)->sin_addr.s_addr;
  8015e0:	8b 47 04             	mov    0x4(%edi),%eax
  8015e3:	89 45 e4             	mov    %eax,-0x1c(%ebp)
    remote_port      = ntohs(((struct sockaddr_in *)to)->sin_port);
  8015e6:	83 ec 0c             	sub    $0xc,%esp
  8015e9:	0f b7 47 02          	movzwl 0x2(%edi),%eax
  8015ed:	50                   	push   %eax
  8015ee:	e8 67 60 00 00       	call   80765a <ntohs>
    buf.addr         = &remote_addr;
  8015f3:	8d 55 e4             	lea    -0x1c(%ebp),%edx
  8015f6:	89 55 dc             	mov    %edx,-0x24(%ebp)
    buf.port         = remote_port;
  8015f9:	66 89 45 e0          	mov    %ax,-0x20(%ebp)
  8015fd:	83 c4 10             	add    $0x10,%esp
  801600:	eb 14                	jmp    801616 <lwip_sendto+0xd6>
  } else {
    remote_addr.addr = 0;
  801602:	c7 45 e4 00 00 00 00 	movl   $0x0,-0x1c(%ebp)
    remote_port      = 0;
    buf.addr         = NULL;
  801609:	c7 45 dc 00 00 00 00 	movl   $0x0,-0x24(%ebp)
    buf.port         = 0;
  801610:	66 c7 45 e0 00 00    	movw   $0x0,-0x20(%ebp)
              s, data, size, flags));
  //ip_addr_debug_print(SOCKETS_DEBUG, &remote_addr);
  LWIP_DEBUGF(SOCKETS_DEBUG, (" port=%u\n", remote_port));
    
  /* make the buffer point to the data that should be sent */
  if ((err = netbuf_ref(&buf, data, size)) == ERR_OK) {
  801616:	83 ec 04             	sub    $0x4,%esp
  801619:	0f b7 c3             	movzwl %bx,%eax
  80161c:	50                   	push   %eax
  80161d:	ff 75 0c             	pushl  0xc(%ebp)
  801620:	8d 45 d4             	lea    -0x2c(%ebp),%eax
  801623:	50                   	push   %eax
  801624:	e8 a1 0f 00 00       	call   8025ca <netbuf_ref>
  801629:	0f be f8             	movsbl %al,%edi
  80162c:	83 c4 10             	add    $0x10,%esp
  80162f:	85 ff                	test   %edi,%edi
  801631:	75 14                	jne    801647 <lwip_sendto+0x107>
    /* send the data */
    err = netconn_send(sock->conn, &buf);
  801633:	83 ec 08             	sub    $0x8,%esp
  801636:	8d 45 d4             	lea    -0x2c(%ebp),%eax
  801639:	50                   	push   %eax
  80163a:	ff 36                	pushl  (%esi)
  80163c:	e8 c1 99 00 00       	call   80b002 <netconn_send>
  801641:	0f be f8             	movsbl %al,%edi
  801644:	83 c4 10             	add    $0x10,%esp
  }

  /* deallocated the buffer */
  if (buf.p != NULL) {
  801647:	8b 45 d4             	mov    -0x2c(%ebp),%eax
  80164a:	85 c0                	test   %eax,%eax
  80164c:	74 0c                	je     80165a <lwip_sendto+0x11a>
    pbuf_free(buf.p);
  80164e:	83 ec 0c             	sub    $0xc,%esp
  801651:	50                   	push   %eax
  801652:	e8 98 31 00 00       	call   8047ef <pbuf_free>
  801657:	83 c4 10             	add    $0x10,%esp
  }
#endif /* LWIP_TCPIP_CORE_LOCKING */
  sock_set_errno(sock, err_to_errno(err));
  80165a:	89 fa                	mov    %edi,%edx
  80165c:	f7 da                	neg    %edx
  80165e:	b8 05 00 00 00       	mov    $0x5,%eax
  801663:	83 fa 0e             	cmp    $0xe,%edx
  801666:	77 07                	ja     80166f <lwip_sendto+0x12f>
  801668:	8b 04 95 20 10 81 00 	mov    0x811020(,%edx,4),%eax
  80166f:	89 46 10             	mov    %eax,0x10(%esi)
  801672:	a3 20 b3 b3 00       	mov    %eax,0xb3b320
  return (err==ERR_OK?size:-1);
  801677:	85 ff                	test   %edi,%edi
  801679:	b8 ff ff ff ff       	mov    $0xffffffff,%eax
  80167e:	0f 44 c3             	cmove  %ebx,%eax
  801681:	eb 05                	jmp    801688 <lwip_sendto+0x148>
  u16_t remote_port;
#endif

  sock = get_socket(s);
  if (!sock)
    return -1;
  801683:	b8 ff ff ff ff       	mov    $0xffffffff,%eax
    pbuf_free(buf.p);
  }
#endif /* LWIP_TCPIP_CORE_LOCKING */
  sock_set_errno(sock, err_to_errno(err));
  return (err==ERR_OK?size:-1);
}
  801688:	8d 65 f4             	lea    -0xc(%ebp),%esp
  80168b:	5b                   	pop    %ebx
  80168c:	5e                   	pop    %esi
  80168d:	5f                   	pop    %edi
  80168e:	5d                   	pop    %ebp
  80168f:	c3                   	ret    

00801690 <lwip_send>:
  return lwip_recvfrom(s, mem, len, flags, NULL, NULL);
}

int
lwip_send(int s, const void *data, int size, unsigned int flags)
{
  801690:	55                   	push   %ebp
  801691:	89 e5                	mov    %esp,%ebp
  801693:	57                   	push   %edi
  801694:	56                   	push   %esi
  801695:	53                   	push   %ebx
  801696:	83 ec 0c             	sub    $0xc,%esp
  801699:	8b 7d 08             	mov    0x8(%ebp),%edi
  80169c:	8b 5d 10             	mov    0x10(%ebp),%ebx
  err_t err;

  LWIP_DEBUGF(SOCKETS_DEBUG, ("lwip_send(%d, data=%p, size=%d, flags=0x%x)\n",
                              s, data, size, flags));

  sock = get_socket(s);
  80169f:	89 f8                	mov    %edi,%eax
  8016a1:	e8 0e f1 ff ff       	call   8007b4 <get_socket>
  8016a6:	89 c6                	mov    %eax,%esi
  if (!sock)
  8016a8:	85 c0                	test   %eax,%eax
  8016aa:	74 6a                	je     801716 <lwip_send+0x86>
    return -1;

  if (sock->conn->type!=NETCONN_TCP) {
  8016ac:	8b 08                	mov    (%eax),%ecx
  8016ae:	83 39 10             	cmpl   $0x10,(%ecx)
  8016b1:	74 19                	je     8016cc <lwip_send+0x3c>
#if (LWIP_UDP || LWIP_RAW)
    return lwip_sendto(s, data, size, flags, NULL, 0);
  8016b3:	83 ec 08             	sub    $0x8,%esp
  8016b6:	6a 00                	push   $0x0
  8016b8:	6a 00                	push   $0x0
  8016ba:	ff 75 14             	pushl  0x14(%ebp)
  8016bd:	53                   	push   %ebx
  8016be:	ff 75 0c             	pushl  0xc(%ebp)
  8016c1:	57                   	push   %edi
  8016c2:	e8 79 fe ff ff       	call   801540 <lwip_sendto>
  8016c7:	83 c4 20             	add    $0x20,%esp
  8016ca:	eb 4f                	jmp    80171b <lwip_send+0x8b>
    sock_set_errno(sock, err_to_errno(ERR_ARG));
    return -1;
#endif /* (LWIP_UDP || LWIP_RAW) */
  }

  err = netconn_write(sock->conn, data, size, NETCONN_COPY | ((flags & MSG_MORE)?NETCONN_MORE:0));
  8016cc:	8b 55 14             	mov    0x14(%ebp),%edx
  8016cf:	83 e2 10             	and    $0x10,%edx
  8016d2:	83 fa 01             	cmp    $0x1,%edx
  8016d5:	19 c0                	sbb    %eax,%eax
  8016d7:	83 e0 fe             	and    $0xfffffffe,%eax
  8016da:	83 c0 03             	add    $0x3,%eax
  8016dd:	50                   	push   %eax
  8016de:	53                   	push   %ebx
  8016df:	ff 75 0c             	pushl  0xc(%ebp)
  8016e2:	51                   	push   %ecx
  8016e3:	e8 96 99 00 00       	call   80b07e <netconn_write>

  LWIP_DEBUGF(SOCKETS_DEBUG, ("lwip_send(%d) err=%d size=%d\n", s, err, size));
  sock_set_errno(sock, err_to_errno(err));
  8016e8:	0f be d0             	movsbl %al,%edx
  8016eb:	f7 da                	neg    %edx
  8016ed:	83 c4 10             	add    $0x10,%esp
  8016f0:	b9 05 00 00 00       	mov    $0x5,%ecx
  8016f5:	83 fa 0e             	cmp    $0xe,%edx
  8016f8:	77 07                	ja     801701 <lwip_send+0x71>
  8016fa:	8b 0c 95 20 10 81 00 	mov    0x811020(,%edx,4),%ecx
  801701:	89 4e 10             	mov    %ecx,0x10(%esi)
  801704:	89 0d 20 b3 b3 00    	mov    %ecx,0xb3b320
  return (err==ERR_OK?size:-1);
  80170a:	84 c0                	test   %al,%al
  80170c:	b8 ff ff ff ff       	mov    $0xffffffff,%eax
  801711:	0f 44 c3             	cmove  %ebx,%eax
  801714:	eb 05                	jmp    80171b <lwip_send+0x8b>
  LWIP_DEBUGF(SOCKETS_DEBUG, ("lwip_send(%d, data=%p, size=%d, flags=0x%x)\n",
                              s, data, size, flags));

  sock = get_socket(s);
  if (!sock)
    return -1;
  801716:	b8 ff ff ff ff       	mov    $0xffffffff,%eax
  err = netconn_write(sock->conn, data, size, NETCONN_COPY | ((flags & MSG_MORE)?NETCONN_MORE:0));

  LWIP_DEBUGF(SOCKETS_DEBUG, ("lwip_send(%d) err=%d size=%d\n", s, err, size));
  sock_set_errno(sock, err_to_errno(err));
  return (err==ERR_OK?size:-1);
}
  80171b:	8d 65 f4             	lea    -0xc(%ebp),%esp
  80171e:	5b                   	pop    %ebx
  80171f:	5e                   	pop    %esi
  801720:	5f                   	pop    %edi
  801721:	5d                   	pop    %ebp
  801722:	c3                   	ret    

00801723 <lwip_socket>:
  return (err==ERR_OK?size:-1);
}

int
lwip_socket(int domain, int type, int protocol)
{
  801723:	55                   	push   %ebp
  801724:	89 e5                	mov    %esp,%ebp
  801726:	53                   	push   %ebx
  801727:	83 ec 04             	sub    $0x4,%esp
  80172a:	8b 45 0c             	mov    0xc(%ebp),%eax
  int i;

  LWIP_UNUSED_ARG(domain);

  /* create a netconn */
  switch (type) {
  80172d:	83 f8 02             	cmp    $0x2,%eax
  801730:	74 27                	je     801759 <lwip_socket+0x36>
  801732:	83 f8 03             	cmp    $0x3,%eax
  801735:	74 07                	je     80173e <lwip_socket+0x1b>
  801737:	83 f8 01             	cmp    $0x1,%eax
  80173a:	75 5c                	jne    801798 <lwip_socket+0x75>
  80173c:	eb 42                	jmp    801780 <lwip_socket+0x5d>
  case SOCK_RAW:
    conn = netconn_new_with_proto_and_callback(NETCONN_RAW, (u8_t)protocol, event_callback);
  80173e:	83 ec 04             	sub    $0x4,%esp
  801741:	68 ac 09 80 00       	push   $0x8009ac
  801746:	0f b6 45 10          	movzbl 0x10(%ebp),%eax
  80174a:	50                   	push   %eax
  80174b:	6a 40                	push   $0x40
  80174d:	e8 92 93 00 00       	call   80aae4 <netconn_new_with_proto_and_callback>
  801752:	89 c3                	mov    %eax,%ebx
    LWIP_DEBUGF(SOCKETS_DEBUG, ("lwip_socket(%s, SOCK_RAW, %d) = ",
                                 domain == PF_INET ? "PF_INET" : "UNKNOWN", protocol));
    break;
  801754:	83 c4 10             	add    $0x10,%esp
  801757:	eb 50                	jmp    8017a9 <lwip_socket+0x86>
  case SOCK_DGRAM:
    conn = netconn_new_with_callback( (protocol == IPPROTO_UDPLITE) ?
  801759:	81 7d 10 88 00 00 00 	cmpl   $0x88,0x10(%ebp)
  801760:	0f 94 c0             	sete   %al
  801763:	0f b6 c0             	movzbl %al,%eax
  801766:	83 c0 20             	add    $0x20,%eax
  801769:	83 ec 04             	sub    $0x4,%esp
  80176c:	68 ac 09 80 00       	push   $0x8009ac
  801771:	6a 00                	push   $0x0
  801773:	50                   	push   %eax
  801774:	e8 6b 93 00 00       	call   80aae4 <netconn_new_with_proto_and_callback>
  801779:	89 c3                	mov    %eax,%ebx
                 NETCONN_UDPLITE : NETCONN_UDP, event_callback);
    LWIP_DEBUGF(SOCKETS_DEBUG, ("lwip_socket(%s, SOCK_DGRAM, %d) = ",
                                 domain == PF_INET ? "PF_INET" : "UNKNOWN", protocol));
    break;
  80177b:	83 c4 10             	add    $0x10,%esp
  80177e:	eb 29                	jmp    8017a9 <lwip_socket+0x86>
  case SOCK_STREAM:
    conn = netconn_new_with_callback(NETCONN_TCP, event_callback);
  801780:	83 ec 04             	sub    $0x4,%esp
  801783:	68 ac 09 80 00       	push   $0x8009ac
  801788:	6a 00                	push   $0x0
  80178a:	6a 10                	push   $0x10
  80178c:	e8 53 93 00 00       	call   80aae4 <netconn_new_with_proto_and_callback>
  801791:	89 c3                	mov    %eax,%ebx
    LWIP_DEBUGF(SOCKETS_DEBUG, ("lwip_socket(%s, SOCK_STREAM, %d) = ",
                                 domain == PF_INET ? "PF_INET" : "UNKNOWN", protocol));
    break;
  801793:	83 c4 10             	add    $0x10,%esp
  801796:	eb 11                	jmp    8017a9 <lwip_socket+0x86>
  default:
    LWIP_DEBUGF(SOCKETS_DEBUG, ("lwip_socket(%d, %d/UNKNOWN, %d) = -1\n",
                                 domain, type, protocol));
    set_errno(EINVAL);
  801798:	c7 05 20 b3 b3 00 16 	movl   $0x16,0xb3b320
  80179f:	00 00 00 
    return -1;
  8017a2:	b8 ff ff ff ff       	mov    $0xffffffff,%eax
  8017a7:	eb 4b                	jmp    8017f4 <lwip_socket+0xd1>
  }

  if (!conn) {
  8017a9:	85 db                	test   %ebx,%ebx
  8017ab:	75 11                	jne    8017be <lwip_socket+0x9b>
    LWIP_DEBUGF(SOCKETS_DEBUG, ("-1 / ENOBUFS (could not create netconn)\n"));
    set_errno(ENOBUFS);
  8017ad:	c7 05 20 b3 b3 00 69 	movl   $0x69,0xb3b320
  8017b4:	00 00 00 
    return -1;
  8017b7:	b8 ff ff ff ff       	mov    $0xffffffff,%eax
  8017bc:	eb 36                	jmp    8017f4 <lwip_socket+0xd1>
  }

  i = alloc_socket(conn);
  8017be:	89 d8                	mov    %ebx,%eax
  8017c0:	e8 87 f3 ff ff       	call   800b4c <alloc_socket>

  if (i == -1) {
  8017c5:	83 f8 ff             	cmp    $0xffffffff,%eax
  8017c8:	75 1d                	jne    8017e7 <lwip_socket+0xc4>
    netconn_delete(conn);
  8017ca:	83 ec 0c             	sub    $0xc,%esp
  8017cd:	53                   	push   %ebx
  8017ce:	e8 ff 93 00 00       	call   80abd2 <netconn_delete>
    set_errno(ENFILE);
  8017d3:	c7 05 20 b3 b3 00 17 	movl   $0x17,0xb3b320
  8017da:	00 00 00 
    return -1;
  8017dd:	83 c4 10             	add    $0x10,%esp
  8017e0:	b8 ff ff ff ff       	mov    $0xffffffff,%eax
  8017e5:	eb 0d                	jmp    8017f4 <lwip_socket+0xd1>
  }
  conn->socket = i;
  8017e7:	89 43 1c             	mov    %eax,0x1c(%ebx)
  LWIP_DEBUGF(SOCKETS_DEBUG, ("%d\n", i));
  set_errno(0);
  8017ea:	c7 05 20 b3 b3 00 00 	movl   $0x0,0xb3b320
  8017f1:	00 00 00 
  return i;
}
  8017f4:	8b 5d fc             	mov    -0x4(%ebp),%ebx
  8017f7:	c9                   	leave  
  8017f8:	c3                   	ret    

008017f9 <lwip_write>:

int
lwip_write(int s, const void *data, int size)
{
  8017f9:	55                   	push   %ebp
  8017fa:	89 e5                	mov    %esp,%ebp
  8017fc:	83 ec 08             	sub    $0x8,%esp
  return lwip_send(s, data, size, 0);
  8017ff:	6a 00                	push   $0x0
  801801:	ff 75 10             	pushl  0x10(%ebp)
  801804:	ff 75 0c             	pushl  0xc(%ebp)
  801807:	ff 75 08             	pushl  0x8(%ebp)
  80180a:	e8 81 fe ff ff       	call   801690 <lwip_send>
}
  80180f:	c9                   	leave  
  801810:	c3                   	ret    

00801811 <lwip_select>:
 * Processing exceptset is not yet implemented.
 */
int
lwip_select(int maxfdp1, fd_set *readset, fd_set *writeset, fd_set *exceptset,
               struct timeval *timeout)
{
  801811:	55                   	push   %ebp
  801812:	89 e5                	mov    %esp,%ebp
  801814:	57                   	push   %edi
  801815:	56                   	push   %esi
  801816:	53                   	push   %ebx
  801817:	83 ec 48             	sub    $0x48,%esp
  80181a:	8b 7d 0c             	mov    0xc(%ebp),%edi
  80181d:	8b 5d 14             	mov    0x14(%ebp),%ebx

  LWIP_DEBUGF(SOCKETS_DEBUG, ("lwip_select(%d, %p, %p, %p, tvsec=%ld tvusec=%ld)\n",
                  maxfdp1, (void *)readset, (void *) writeset, (void *) exceptset,
                  timeout ? timeout->tv_sec : -1L, timeout ? timeout->tv_usec : -1L));

  select_cb.next = 0;
  801820:	c7 45 c4 00 00 00 00 	movl   $0x0,-0x3c(%ebp)
  select_cb.readset = readset;
  801827:	89 7d c8             	mov    %edi,-0x38(%ebp)
  select_cb.writeset = writeset;
  80182a:	8b 45 10             	mov    0x10(%ebp),%eax
  80182d:	89 45 cc             	mov    %eax,-0x34(%ebp)
  select_cb.exceptset = exceptset;
  801830:	89 5d d0             	mov    %ebx,-0x30(%ebp)
  select_cb.sem_signalled = 0;
  801833:	c7 45 d4 00 00 00 00 	movl   $0x0,-0x2c(%ebp)

  /* Protect ourselves searching through the list */
  sys_sem_wait(selectsem);
  80183a:	ff 35 80 50 81 00    	pushl  0x815080
  801840:	e8 6d 38 00 00       	call   8050b2 <sys_sem_wait>

  if (readset)
  801845:	83 c4 10             	add    $0x10,%esp
  801848:	85 ff                	test   %edi,%edi
  80184a:	74 07                	je     801853 <lwip_select+0x42>
    lreadset = *readset;
  80184c:	8b 07                	mov    (%edi),%eax
  80184e:	89 45 e4             	mov    %eax,-0x1c(%ebp)
  801851:	eb 13                	jmp    801866 <lwip_select+0x55>
  else
    FD_ZERO(&lreadset);
  801853:	83 ec 04             	sub    $0x4,%esp
  801856:	6a 04                	push   $0x4
  801858:	6a 00                	push   $0x0
  80185a:	8d 45 e4             	lea    -0x1c(%ebp),%eax
  80185d:	50                   	push   %eax
  80185e:	e8 23 d3 00 00       	call   80eb86 <memset>
  801863:	83 c4 10             	add    $0x10,%esp
  if (writeset)
  801866:	83 7d 10 00          	cmpl   $0x0,0x10(%ebp)
  80186a:	74 0a                	je     801876 <lwip_select+0x65>
    lwriteset = *writeset;
  80186c:	8b 45 10             	mov    0x10(%ebp),%eax
  80186f:	8b 00                	mov    (%eax),%eax
  801871:	89 45 e0             	mov    %eax,-0x20(%ebp)
  801874:	eb 13                	jmp    801889 <lwip_select+0x78>
  else
    FD_ZERO(&lwriteset);
  801876:	83 ec 04             	sub    $0x4,%esp
  801879:	6a 04                	push   $0x4
  80187b:	6a 00                	push   $0x0
  80187d:	8d 45 e0             	lea    -0x20(%ebp),%eax
  801880:	50                   	push   %eax
  801881:	e8 00 d3 00 00       	call   80eb86 <memset>
  801886:	83 c4 10             	add    $0x10,%esp
  if (exceptset)
  801889:	85 db                	test   %ebx,%ebx
  80188b:	74 07                	je     801894 <lwip_select+0x83>
    lexceptset = *exceptset;
  80188d:	8b 03                	mov    (%ebx),%eax
  80188f:	89 45 dc             	mov    %eax,-0x24(%ebp)
  801892:	eb 13                	jmp    8018a7 <lwip_select+0x96>
  else
    FD_ZERO(&lexceptset);
  801894:	83 ec 04             	sub    $0x4,%esp
  801897:	6a 04                	push   $0x4
  801899:	6a 00                	push   $0x0
  80189b:	8d 45 dc             	lea    -0x24(%ebp),%eax
  80189e:	50                   	push   %eax
  80189f:	e8 e2 d2 00 00       	call   80eb86 <memset>
  8018a4:	83 c4 10             	add    $0x10,%esp

  /* Go through each socket in each list to count number of sockets which
     currently match */
  nready = lwip_selscan(maxfdp1, &lreadset, &lwriteset, &lexceptset);
  8018a7:	83 ec 0c             	sub    $0xc,%esp
  8018aa:	8d 45 dc             	lea    -0x24(%ebp),%eax
  8018ad:	50                   	push   %eax
  8018ae:	8d 4d e0             	lea    -0x20(%ebp),%ecx
  8018b1:	8d 55 e4             	lea    -0x1c(%ebp),%edx
  8018b4:	8b 45 08             	mov    0x8(%ebp),%eax
  8018b7:	e8 43 ef ff ff       	call   8007ff <lwip_selscan>
  8018bc:	89 c6                	mov    %eax,%esi

  /* If we don't have any current events, then suspend if we are supposed to */
  if (!nready) {
  8018be:	83 c4 10             	add    $0x10,%esp
  8018c1:	85 c0                	test   %eax,%eax
  8018c3:	0f 85 be 01 00 00    	jne    801a87 <lwip_select+0x276>
    if (timeout && timeout->tv_sec == 0 && timeout->tv_usec == 0) {
  8018c9:	83 7d 18 00          	cmpl   $0x0,0x18(%ebp)
  8018cd:	0f 84 56 02 00 00    	je     801b29 <lwip_select+0x318>
  8018d3:	8b 45 18             	mov    0x18(%ebp),%eax
  8018d6:	83 38 00             	cmpl   $0x0,(%eax)
  8018d9:	0f 85 ea 01 00 00    	jne    801ac9 <lwip_select+0x2b8>
  8018df:	83 78 04 00          	cmpl   $0x0,0x4(%eax)
  8018e3:	0f 85 e0 01 00 00    	jne    801ac9 <lwip_select+0x2b8>
      sys_sem_signal(selectsem);
  8018e9:	83 ec 0c             	sub    $0xc,%esp
  8018ec:	ff 35 80 50 81 00    	pushl  0x815080
  8018f2:	e8 a4 86 00 00       	call   809f9b <sys_sem_signal>
      if (readset)
  8018f7:	83 c4 10             	add    $0x10,%esp
  8018fa:	85 ff                	test   %edi,%edi
  8018fc:	74 10                	je     80190e <lwip_select+0xfd>
        FD_ZERO(readset);
  8018fe:	83 ec 04             	sub    $0x4,%esp
  801901:	6a 04                	push   $0x4
  801903:	6a 00                	push   $0x0
  801905:	57                   	push   %edi
  801906:	e8 7b d2 00 00       	call   80eb86 <memset>
  80190b:	83 c4 10             	add    $0x10,%esp
      if (writeset)
  80190e:	83 7d 10 00          	cmpl   $0x0,0x10(%ebp)
  801912:	74 12                	je     801926 <lwip_select+0x115>
        FD_ZERO(writeset);
  801914:	83 ec 04             	sub    $0x4,%esp
  801917:	6a 04                	push   $0x4
  801919:	6a 00                	push   $0x0
  80191b:	ff 75 10             	pushl  0x10(%ebp)
  80191e:	e8 63 d2 00 00       	call   80eb86 <memset>
  801923:	83 c4 10             	add    $0x10,%esp
      if (exceptset)
  801926:	85 db                	test   %ebx,%ebx
  801928:	74 10                	je     80193a <lwip_select+0x129>
        FD_ZERO(exceptset);
  80192a:	83 ec 04             	sub    $0x4,%esp
  80192d:	6a 04                	push   $0x4
  80192f:	6a 00                	push   $0x0
  801931:	53                   	push   %ebx
  801932:	e8 4f d2 00 00       	call   80eb86 <memset>
  801937:	83 c4 10             	add    $0x10,%esp
  
      LWIP_DEBUGF(SOCKETS_DEBUG, ("lwip_select: no timeout, returning 0\n"));
      set_errno(0);
  80193a:	c7 05 20 b3 b3 00 00 	movl   $0x0,0xb3b320
  801941:	00 00 00 
  
      return 0;
  801944:	b8 00 00 00 00       	mov    $0x0,%eax
  801949:	e9 13 02 00 00       	jmp    801b61 <lwip_select+0x350>
      msectimeout =  ((timeout->tv_sec * 1000) + ((timeout->tv_usec + 500)/1000));
      if(msectimeout == 0)
        msectimeout = 1;
    }
    
    i = sys_sem_wait_timeout(select_cb.sem, msectimeout);
  80194e:	83 ec 08             	sub    $0x8,%esp
  801951:	56                   	push   %esi
  801952:	ff 75 d8             	pushl  -0x28(%ebp)
  801955:	e8 19 39 00 00       	call   805273 <sys_sem_wait_timeout>
  80195a:	89 c6                	mov    %eax,%esi
    
    /* Take us off the list */
    sys_sem_wait(selectsem);
  80195c:	83 c4 04             	add    $0x4,%esp
  80195f:	ff 35 80 50 81 00    	pushl  0x815080
  801965:	e8 48 37 00 00       	call   8050b2 <sys_sem_wait>
    if (select_cb_list == &select_cb)
  80196a:	a1 88 50 81 00       	mov    0x815088,%eax
  80196f:	8d 55 c4             	lea    -0x3c(%ebp),%edx
  801972:	83 c4 10             	add    $0x10,%esp
      select_cb_list = select_cb.next;
    else
      for (p_selcb = select_cb_list; p_selcb; p_selcb = p_selcb->next) {
        if (p_selcb->next == &select_cb) {
  801975:	89 d1                	mov    %edx,%ecx
    
    i = sys_sem_wait_timeout(select_cb.sem, msectimeout);
    
    /* Take us off the list */
    sys_sem_wait(selectsem);
    if (select_cb_list == &select_cb)
  801977:	39 d0                	cmp    %edx,%eax
  801979:	75 19                	jne    801994 <lwip_select+0x183>
      select_cb_list = select_cb.next;
  80197b:	8b 45 c4             	mov    -0x3c(%ebp),%eax
  80197e:	a3 88 50 81 00       	mov    %eax,0x815088
  801983:	eb 13                	jmp    801998 <lwip_select+0x187>
    else
      for (p_selcb = select_cb_list; p_selcb; p_selcb = p_selcb->next) {
        if (p_selcb->next == &select_cb) {
  801985:	8b 10                	mov    (%eax),%edx
  801987:	39 ca                	cmp    %ecx,%edx
  801989:	75 07                	jne    801992 <lwip_select+0x181>
          p_selcb->next = select_cb.next;
  80198b:	8b 55 c4             	mov    -0x3c(%ebp),%edx
  80198e:	89 10                	mov    %edx,(%eax)
          break;
  801990:	eb 06                	jmp    801998 <lwip_select+0x187>
    /* Take us off the list */
    sys_sem_wait(selectsem);
    if (select_cb_list == &select_cb)
      select_cb_list = select_cb.next;
    else
      for (p_selcb = select_cb_list; p_selcb; p_selcb = p_selcb->next) {
  801992:	89 d0                	mov    %edx,%eax
  801994:	85 c0                	test   %eax,%eax
  801996:	75 ed                	jne    801985 <lwip_select+0x174>
          p_selcb->next = select_cb.next;
          break;
        }
      }
    
    sys_sem_signal(selectsem);
  801998:	83 ec 0c             	sub    $0xc,%esp
  80199b:	ff 35 80 50 81 00    	pushl  0x815080
  8019a1:	e8 f5 85 00 00       	call   809f9b <sys_sem_signal>
    
    sys_sem_free(select_cb.sem);
  8019a6:	83 c4 04             	add    $0x4,%esp
  8019a9:	ff 75 d8             	pushl  -0x28(%ebp)
  8019ac:	e8 ba 83 00 00       	call   809d6b <sys_sem_free>
    if (i == 0)  {
  8019b1:	83 c4 10             	add    $0x10,%esp
  8019b4:	85 f6                	test   %esi,%esi
  8019b6:	75 54                	jne    801a0c <lwip_select+0x1fb>
      /* Timeout */
      if (readset)
  8019b8:	85 ff                	test   %edi,%edi
  8019ba:	74 10                	je     8019cc <lwip_select+0x1bb>
        FD_ZERO(readset);
  8019bc:	83 ec 04             	sub    $0x4,%esp
  8019bf:	6a 04                	push   $0x4
  8019c1:	6a 00                	push   $0x0
  8019c3:	57                   	push   %edi
  8019c4:	e8 bd d1 00 00       	call   80eb86 <memset>
  8019c9:	83 c4 10             	add    $0x10,%esp
      if (writeset)
  8019cc:	83 7d 10 00          	cmpl   $0x0,0x10(%ebp)
  8019d0:	74 12                	je     8019e4 <lwip_select+0x1d3>
        FD_ZERO(writeset);
  8019d2:	83 ec 04             	sub    $0x4,%esp
  8019d5:	6a 04                	push   $0x4
  8019d7:	6a 00                	push   $0x0
  8019d9:	ff 75 10             	pushl  0x10(%ebp)
  8019dc:	e8 a5 d1 00 00       	call   80eb86 <memset>
  8019e1:	83 c4 10             	add    $0x10,%esp
      if (exceptset)
  8019e4:	85 db                	test   %ebx,%ebx
  8019e6:	74 10                	je     8019f8 <lwip_select+0x1e7>
        FD_ZERO(exceptset);
  8019e8:	83 ec 04             	sub    $0x4,%esp
  8019eb:	6a 04                	push   $0x4
  8019ed:	6a 00                	push   $0x0
  8019ef:	53                   	push   %ebx
  8019f0:	e8 91 d1 00 00       	call   80eb86 <memset>
  8019f5:	83 c4 10             	add    $0x10,%esp
  
      LWIP_DEBUGF(SOCKETS_DEBUG, ("lwip_select: timeout expired\n"));
      set_errno(0);
  8019f8:	c7 05 20 b3 b3 00 00 	movl   $0x0,0xb3b320
  8019ff:	00 00 00 
  
      return 0;
  801a02:	b8 00 00 00 00       	mov    $0x0,%eax
  801a07:	e9 55 01 00 00       	jmp    801b61 <lwip_select+0x350>
    }
    
    if (readset)
  801a0c:	85 ff                	test   %edi,%edi
  801a0e:	74 07                	je     801a17 <lwip_select+0x206>
      lreadset = *readset;
  801a10:	8b 07                	mov    (%edi),%eax
  801a12:	89 45 e4             	mov    %eax,-0x1c(%ebp)
  801a15:	eb 13                	jmp    801a2a <lwip_select+0x219>
    else
      FD_ZERO(&lreadset);
  801a17:	83 ec 04             	sub    $0x4,%esp
  801a1a:	6a 04                	push   $0x4
  801a1c:	6a 00                	push   $0x0
  801a1e:	8d 45 e4             	lea    -0x1c(%ebp),%eax
  801a21:	50                   	push   %eax
  801a22:	e8 5f d1 00 00       	call   80eb86 <memset>
  801a27:	83 c4 10             	add    $0x10,%esp
    if (writeset)
  801a2a:	83 7d 10 00          	cmpl   $0x0,0x10(%ebp)
  801a2e:	74 0a                	je     801a3a <lwip_select+0x229>
      lwriteset = *writeset;
  801a30:	8b 45 10             	mov    0x10(%ebp),%eax
  801a33:	8b 00                	mov    (%eax),%eax
  801a35:	89 45 e0             	mov    %eax,-0x20(%ebp)
  801a38:	eb 13                	jmp    801a4d <lwip_select+0x23c>
    else
      FD_ZERO(&lwriteset);
  801a3a:	83 ec 04             	sub    $0x4,%esp
  801a3d:	6a 04                	push   $0x4
  801a3f:	6a 00                	push   $0x0
  801a41:	8d 45 e0             	lea    -0x20(%ebp),%eax
  801a44:	50                   	push   %eax
  801a45:	e8 3c d1 00 00       	call   80eb86 <memset>
  801a4a:	83 c4 10             	add    $0x10,%esp
    if (exceptset)
  801a4d:	85 db                	test   %ebx,%ebx
  801a4f:	74 07                	je     801a58 <lwip_select+0x247>
      lexceptset = *exceptset;
  801a51:	8b 03                	mov    (%ebx),%eax
  801a53:	89 45 dc             	mov    %eax,-0x24(%ebp)
  801a56:	eb 13                	jmp    801a6b <lwip_select+0x25a>
    else
      FD_ZERO(&lexceptset);
  801a58:	83 ec 04             	sub    $0x4,%esp
  801a5b:	6a 04                	push   $0x4
  801a5d:	6a 00                	push   $0x0
  801a5f:	8d 45 dc             	lea    -0x24(%ebp),%eax
  801a62:	50                   	push   %eax
  801a63:	e8 1e d1 00 00       	call   80eb86 <memset>
  801a68:	83 c4 10             	add    $0x10,%esp
    
    /* See what's set */
    nready = lwip_selscan(maxfdp1, &lreadset, &lwriteset, &lexceptset);
  801a6b:	83 ec 0c             	sub    $0xc,%esp
  801a6e:	8d 45 dc             	lea    -0x24(%ebp),%eax
  801a71:	50                   	push   %eax
  801a72:	8d 4d e0             	lea    -0x20(%ebp),%ecx
  801a75:	8d 55 e4             	lea    -0x1c(%ebp),%edx
  801a78:	8b 45 08             	mov    0x8(%ebp),%eax
  801a7b:	e8 7f ed ff ff       	call   8007ff <lwip_selscan>
  801a80:	89 c6                	mov    %eax,%esi
  801a82:	83 c4 10             	add    $0x10,%esp
  801a85:	eb 11                	jmp    801a98 <lwip_select+0x287>
  } else
    sys_sem_signal(selectsem);
  801a87:	83 ec 0c             	sub    $0xc,%esp
  801a8a:	ff 35 80 50 81 00    	pushl  0x815080
  801a90:	e8 06 85 00 00       	call   809f9b <sys_sem_signal>
  801a95:	83 c4 10             	add    $0x10,%esp
  
  if (readset)
  801a98:	85 ff                	test   %edi,%edi
  801a9a:	74 05                	je     801aa1 <lwip_select+0x290>
    *readset = lreadset;
  801a9c:	8b 45 e4             	mov    -0x1c(%ebp),%eax
  801a9f:	89 07                	mov    %eax,(%edi)
  if (writeset)
  801aa1:	83 7d 10 00          	cmpl   $0x0,0x10(%ebp)
  801aa5:	74 08                	je     801aaf <lwip_select+0x29e>
    *writeset = lwriteset;
  801aa7:	8b 45 e0             	mov    -0x20(%ebp),%eax
  801aaa:	8b 7d 10             	mov    0x10(%ebp),%edi
  801aad:	89 07                	mov    %eax,(%edi)
  if (exceptset)
  801aaf:	85 db                	test   %ebx,%ebx
  801ab1:	74 05                	je     801ab8 <lwip_select+0x2a7>
    *exceptset = lexceptset;
  801ab3:	8b 45 dc             	mov    -0x24(%ebp),%eax
  801ab6:	89 03                	mov    %eax,(%ebx)
  
  LWIP_DEBUGF(SOCKETS_DEBUG, ("lwip_select: nready=%d\n", nready));
  set_errno(0);
  801ab8:	c7 05 20 b3 b3 00 00 	movl   $0x0,0xb3b320
  801abf:	00 00 00 
  
  return nready;
  801ac2:	89 f0                	mov    %esi,%eax
  801ac4:	e9 98 00 00 00       	jmp    801b61 <lwip_select+0x350>
    /* add our semaphore to list */
    /* We don't actually need any dynamic memory. Our entry on the
     * list is only valid while we are in this function, so it's ok
     * to use local variables */
    
    select_cb.sem = sys_sem_new(0);
  801ac9:	83 ec 0c             	sub    $0xc,%esp
  801acc:	6a 00                	push   $0x0
  801ace:	e8 17 82 00 00       	call   809cea <sys_sem_new>
  801ad3:	89 45 d8             	mov    %eax,-0x28(%ebp)
    /* Note that we are still protected */
    /* Put this select_cb on top of list */
    select_cb.next = select_cb_list;
  801ad6:	a1 88 50 81 00       	mov    0x815088,%eax
  801adb:	89 45 c4             	mov    %eax,-0x3c(%ebp)
    select_cb_list = &select_cb;
  801ade:	8d 45 c4             	lea    -0x3c(%ebp),%eax
  801ae1:	a3 88 50 81 00       	mov    %eax,0x815088
    
    /* Now we can safely unprotect */
    sys_sem_signal(selectsem);
  801ae6:	83 c4 04             	add    $0x4,%esp
  801ae9:	ff 35 80 50 81 00    	pushl  0x815080
  801aef:	e8 a7 84 00 00       	call   809f9b <sys_sem_signal>
    /* Now just wait to be woken */
    if (timeout == 0)
      /* Wait forever */
      msectimeout = 0;
    else {
      msectimeout =  ((timeout->tv_sec * 1000) + ((timeout->tv_usec + 500)/1000));
  801af4:	8b 45 18             	mov    0x18(%ebp),%eax
  801af7:	69 30 e8 03 00 00    	imul   $0x3e8,(%eax),%esi
  801afd:	8b 48 04             	mov    0x4(%eax),%ecx
  801b00:	81 c1 f4 01 00 00    	add    $0x1f4,%ecx
  801b06:	ba d3 4d 62 10       	mov    $0x10624dd3,%edx
  801b0b:	89 c8                	mov    %ecx,%eax
  801b0d:	f7 ea                	imul   %edx
  801b0f:	c1 fa 06             	sar    $0x6,%edx
  801b12:	c1 f9 1f             	sar    $0x1f,%ecx
  801b15:	29 ca                	sub    %ecx,%edx
      if(msectimeout == 0)
  801b17:	83 c4 10             	add    $0x10,%esp
  801b1a:	01 d6                	add    %edx,%esi
        msectimeout = 1;
  801b1c:	b8 01 00 00 00       	mov    $0x1,%eax
  801b21:	0f 44 f0             	cmove  %eax,%esi
  801b24:	e9 25 fe ff ff       	jmp    80194e <lwip_select+0x13d>
    /* add our semaphore to list */
    /* We don't actually need any dynamic memory. Our entry on the
     * list is only valid while we are in this function, so it's ok
     * to use local variables */
    
    select_cb.sem = sys_sem_new(0);
  801b29:	83 ec 0c             	sub    $0xc,%esp
  801b2c:	6a 00                	push   $0x0
  801b2e:	e8 b7 81 00 00       	call   809cea <sys_sem_new>
  801b33:	89 45 d8             	mov    %eax,-0x28(%ebp)
    /* Note that we are still protected */
    /* Put this select_cb on top of list */
    select_cb.next = select_cb_list;
  801b36:	a1 88 50 81 00       	mov    0x815088,%eax
  801b3b:	89 45 c4             	mov    %eax,-0x3c(%ebp)
    select_cb_list = &select_cb;
  801b3e:	8d 45 c4             	lea    -0x3c(%ebp),%eax
  801b41:	a3 88 50 81 00       	mov    %eax,0x815088
    
    /* Now we can safely unprotect */
    sys_sem_signal(selectsem);
  801b46:	83 c4 04             	add    $0x4,%esp
  801b49:	ff 35 80 50 81 00    	pushl  0x815080
  801b4f:	e8 47 84 00 00       	call   809f9b <sys_sem_signal>
  801b54:	83 c4 10             	add    $0x10,%esp
    
    /* Now just wait to be woken */
    if (timeout == 0)
      /* Wait forever */
      msectimeout = 0;
  801b57:	be 00 00 00 00       	mov    $0x0,%esi
  801b5c:	e9 ed fd ff ff       	jmp    80194e <lwip_select+0x13d>
  
  LWIP_DEBUGF(SOCKETS_DEBUG, ("lwip_select: nready=%d\n", nready));
  set_errno(0);
  
  return nready;
}
  801b61:	8d 65 f4             	lea    -0xc(%ebp),%esp
  801b64:	5b                   	pop    %ebx
  801b65:	5e                   	pop    %esi
  801b66:	5f                   	pop    %edi
  801b67:	5d                   	pop    %ebp
  801b68:	c3                   	ret    

00801b69 <lwip_shutdown>:
 * Unimplemented: Close one end of a full-duplex connection.
 * Currently, the full connection is closed.
 */
int
lwip_shutdown(int s, int how)
{
  801b69:	55                   	push   %ebp
  801b6a:	89 e5                	mov    %esp,%ebp
  801b6c:	83 ec 14             	sub    $0x14,%esp
  LWIP_UNUSED_ARG(how);
  LWIP_DEBUGF(SOCKETS_DEBUG, ("lwip_shutdown(%d, how=%d)\n", s, how));
  return lwip_close(s); /* XXX temporary hack until proper implementation */
  801b6f:	ff 75 08             	pushl  0x8(%ebp)
  801b72:	e8 9a f5 ff ff       	call   801111 <lwip_close>
}
  801b77:	c9                   	leave  
  801b78:	c3                   	ret    

00801b79 <lwip_getpeername>:
  return 0;
}

int
lwip_getpeername(int s, struct sockaddr *name, socklen_t *namelen)
{
  801b79:	55                   	push   %ebp
  801b7a:	89 e5                	mov    %esp,%ebp
  801b7c:	83 ec 14             	sub    $0x14,%esp
  return lwip_getaddrname(s, name, namelen, 0);
  801b7f:	6a 00                	push   $0x0
  801b81:	8b 4d 10             	mov    0x10(%ebp),%ecx
  801b84:	8b 55 0c             	mov    0xc(%ebp),%edx
  801b87:	8b 45 08             	mov    0x8(%ebp),%eax
  801b8a:	e8 76 ed ff ff       	call   800905 <lwip_getaddrname>
}
  801b8f:	c9                   	leave  
  801b90:	c3                   	ret    

00801b91 <lwip_getsockname>:

int
lwip_getsockname(int s, struct sockaddr *name, socklen_t *namelen)
{
  801b91:	55                   	push   %ebp
  801b92:	89 e5                	mov    %esp,%ebp
  801b94:	83 ec 14             	sub    $0x14,%esp
  return lwip_getaddrname(s, name, namelen, 1);
  801b97:	6a 01                	push   $0x1
  801b99:	8b 4d 10             	mov    0x10(%ebp),%ecx
  801b9c:	8b 55 0c             	mov    0xc(%ebp),%edx
  801b9f:	8b 45 08             	mov    0x8(%ebp),%eax
  801ba2:	e8 5e ed ff ff       	call   800905 <lwip_getaddrname>
}
  801ba7:	c9                   	leave  
  801ba8:	c3                   	ret    

00801ba9 <lwip_getsockopt>:

int
lwip_getsockopt(int s, int level, int optname, void *optval, socklen_t *optlen)
{
  801ba9:	55                   	push   %ebp
  801baa:	89 e5                	mov    %esp,%ebp
  801bac:	57                   	push   %edi
  801bad:	56                   	push   %esi
  801bae:	53                   	push   %ebx
  801baf:	83 ec 2c             	sub    $0x2c,%esp
  801bb2:	8b 75 0c             	mov    0xc(%ebp),%esi
  801bb5:	8b 7d 18             	mov    0x18(%ebp),%edi
  err_t err = ERR_OK;
  struct lwip_socket *sock = get_socket(s);
  801bb8:	8b 45 08             	mov    0x8(%ebp),%eax
  801bbb:	e8 f4 eb ff ff       	call   8007b4 <get_socket>
  801bc0:	89 c3                	mov    %eax,%ebx
  struct lwip_setgetsockopt_data data;

  if (!sock)
  801bc2:	85 c0                	test   %eax,%eax
  801bc4:	0f 84 7a 01 00 00    	je     801d44 <lwip_getsockopt+0x19b>
    return -1;

  if ((NULL == optval) || (NULL == optlen)) {
  801bca:	83 7d 14 00          	cmpl   $0x0,0x14(%ebp)
  801bce:	74 04                	je     801bd4 <lwip_getsockopt+0x2b>
  801bd0:	85 ff                	test   %edi,%edi
  801bd2:	75 1b                	jne    801bef <lwip_getsockopt+0x46>
    sock_set_errno(sock, EFAULT);
  801bd4:	c7 43 10 0e 00 00 00 	movl   $0xe,0x10(%ebx)
  801bdb:	c7 05 20 b3 b3 00 0e 	movl   $0xe,0xb3b320
  801be2:	00 00 00 
    return -1;
  801be5:	b8 ff ff ff ff       	mov    $0xffffffff,%eax
  801bea:	e9 95 01 00 00       	jmp    801d84 <lwip_getsockopt+0x1db>
  }

  /* Do length and type checks for the various options first, to keep it readable. */
  switch (level) {
  801bef:	83 fe 06             	cmp    $0x6,%esi
  801bf2:	0f 84 9c 00 00 00    	je     801c94 <lwip_getsockopt+0xeb>
  801bf8:	81 fe ff 0f 00 00    	cmp    $0xfff,%esi
  801bfe:	74 0f                	je     801c0f <lwip_getsockopt+0x66>
#endif /* LWIP_UDP && LWIP_UDPLITE*/
/* UNDEFINED LEVEL */
  default:
      LWIP_DEBUGF(SOCKETS_DEBUG, ("lwip_getsockopt(%d, level=0x%x, UNIMPL: optname=0x%x, ..)\n",
                                  s, level, optname));
      err = ENOPROTOOPT;
  801c00:	b8 5c 00 00 00       	mov    $0x5c,%eax
    sock_set_errno(sock, EFAULT);
    return -1;
  }

  /* Do length and type checks for the various options first, to keep it readable. */
  switch (level) {
  801c05:	85 f6                	test   %esi,%esi
  801c07:	0f 85 c4 00 00 00    	jne    801cd1 <lwip_getsockopt+0x128>
  801c0d:	eb 6f                	jmp    801c7e <lwip_getsockopt+0xd5>
   
/* Level: SOL_SOCKET */
  case SOL_SOCKET:
    switch (optname) {
  801c0f:	83 7d 10 20          	cmpl   $0x20,0x10(%ebp)
  801c13:	74 39                	je     801c4e <lwip_getsockopt+0xa5>
  801c15:	83 7d 10 20          	cmpl   $0x20,0x10(%ebp)
  801c19:	7f 12                	jg     801c2d <lwip_getsockopt+0x84>
  801c1b:	83 7d 10 02          	cmpl   $0x2,0x10(%ebp)
  801c1f:	74 2d                	je     801c4e <lwip_getsockopt+0xa5>
  801c21:	83 7d 10 08          	cmpl   $0x8,0x10(%ebp)
  801c25:	0f 85 93 00 00 00    	jne    801cbe <lwip_getsockopt+0x115>
  801c2b:	eb 21                	jmp    801c4e <lwip_getsockopt+0xa5>
  801c2d:	81 7d 10 07 10 00 00 	cmpl   $0x1007,0x10(%ebp)
  801c34:	0f 8c 84 00 00 00    	jl     801cbe <lwip_getsockopt+0x115>
  801c3a:	81 7d 10 08 10 00 00 	cmpl   $0x1008,0x10(%ebp)
  801c41:	7e 0b                	jle    801c4e <lwip_getsockopt+0xa5>
  801c43:	81 7d 10 0a 10 00 00 	cmpl   $0x100a,0x10(%ebp)
  801c4a:	74 10                	je     801c5c <lwip_getsockopt+0xb3>
  801c4c:	eb 70                	jmp    801cbe <lwip_getsockopt+0x115>
    case SO_REUSEADDR:
    case SO_REUSEPORT:
#endif /* SO_REUSE */
    case SO_TYPE:
    /* UNIMPL case SO_USELOOPBACK: */
      if (*optlen < sizeof(int)) {
  801c4e:	83 3f 03             	cmpl   $0x3,(%edi)
  801c51:	0f 86 f4 00 00 00    	jbe    801d4b <lwip_getsockopt+0x1a2>
  801c57:	e9 8e 00 00 00       	jmp    801cea <lwip_getsockopt+0x141>
      }
      break;

    case SO_NO_CHECK:
      if (*optlen < sizeof(int)) {
        err = EINVAL;
  801c5c:	83 3f 04             	cmpl   $0x4,(%edi)
  801c5f:	19 c0                	sbb    %eax,%eax
  801c61:	83 e0 16             	and    $0x16,%eax
      }
#if LWIP_UDP
      if ((sock->conn->type != NETCONN_UDP) ||
  801c64:	8b 13                	mov    (%ebx),%edx
  801c66:	83 3a 20             	cmpl   $0x20,(%edx)
  801c69:	0f 85 e3 00 00 00    	jne    801d52 <lwip_getsockopt+0x1a9>
          ((udp_flags(sock->conn->pcb.udp) & UDP_FLAGS_UDPLITE) != 0)) {
  801c6f:	8b 52 08             	mov    0x8(%edx),%edx
    case SO_NO_CHECK:
      if (*optlen < sizeof(int)) {
        err = EINVAL;
      }
#if LWIP_UDP
      if ((sock->conn->type != NETCONN_UDP) ||
  801c72:	f6 42 10 02          	testb  $0x2,0x10(%edx)
  801c76:	0f 85 e0 00 00 00    	jne    801d5c <lwip_getsockopt+0x1b3>
  801c7c:	eb 53                	jmp    801cd1 <lwip_getsockopt+0x128>
    }  /* switch (optname) */
    break;
                     
/* Level: IPPROTO_IP */
  case IPPROTO_IP:
    switch (optname) {
  801c7e:	8b 45 10             	mov    0x10(%ebp),%eax
  801c81:	83 e8 01             	sub    $0x1,%eax
  801c84:	83 f8 01             	cmp    $0x1,%eax
  801c87:	77 3c                	ja     801cc5 <lwip_getsockopt+0x11c>
    /* UNIMPL case IP_HDRINCL: */
    /* UNIMPL case IP_RCVDSTADDR: */
    /* UNIMPL case IP_RCVIF: */
    case IP_TTL:
    case IP_TOS:
      if (*optlen < sizeof(int)) {
  801c89:	83 3f 03             	cmpl   $0x3,(%edi)
  801c8c:	0f 86 d4 00 00 00    	jbe    801d66 <lwip_getsockopt+0x1bd>
  801c92:	eb 56                	jmp    801cea <lwip_getsockopt+0x141>
    break;
         
#if LWIP_TCP
/* Level: IPPROTO_TCP */
  case IPPROTO_TCP:
    if (*optlen < sizeof(int)) {
  801c94:	83 3f 03             	cmpl   $0x3,(%edi)
  801c97:	0f 86 d3 00 00 00    	jbe    801d70 <lwip_getsockopt+0x1c7>
      err = EINVAL;
      break;
    }
    
    /* If this is no TCP socket, ignore any options. */
    if (sock->conn->type != NETCONN_TCP)
  801c9d:	8b 10                	mov    (%eax),%edx
      return 0;
  801c9f:	b8 00 00 00 00       	mov    $0x0,%eax
      err = EINVAL;
      break;
    }
    
    /* If this is no TCP socket, ignore any options. */
    if (sock->conn->type != NETCONN_TCP)
  801ca4:	83 3a 10             	cmpl   $0x10,(%edx)
  801ca7:	0f 85 d7 00 00 00    	jne    801d84 <lwip_getsockopt+0x1db>
      return 0;

    switch (optname) {
  801cad:	8b 45 10             	mov    0x10(%ebp),%eax
  801cb0:	83 e8 01             	sub    $0x1,%eax
  801cb3:	83 f8 01             	cmp    $0x1,%eax
  801cb6:	0f 87 be 00 00 00    	ja     801d7a <lwip_getsockopt+0x1d1>
  801cbc:	eb 0e                	jmp    801ccc <lwip_getsockopt+0x123>
      break;

    default:
      LWIP_DEBUGF(SOCKETS_DEBUG, ("lwip_getsockopt(%d, SOL_SOCKET, UNIMPL: optname=0x%x, ..)\n",
                                  s, optname));
      err = ENOPROTOOPT;
  801cbe:	b8 5c 00 00 00       	mov    $0x5c,%eax
  801cc3:	eb 0c                	jmp    801cd1 <lwip_getsockopt+0x128>
#endif /* LWIP_IGMP */

    default:
      LWIP_DEBUGF(SOCKETS_DEBUG, ("lwip_getsockopt(%d, IPPROTO_IP, UNIMPL: optname=0x%x, ..)\n",
                                  s, optname));
      err = ENOPROTOOPT;
  801cc5:	b8 5c 00 00 00       	mov    $0x5c,%eax
  801cca:	eb 05                	jmp    801cd1 <lwip_getsockopt+0x128>
}

int
lwip_getsockopt(int s, int level, int optname, void *optval, socklen_t *optlen)
{
  err_t err = ERR_OK;
  801ccc:	b8 00 00 00 00       	mov    $0x0,%eax
                                  s, level, optname));
      err = ENOPROTOOPT;
  }  /* switch */

   
  if (err != ERR_OK) {
  801cd1:	84 c0                	test   %al,%al
  801cd3:	74 15                	je     801cea <lwip_getsockopt+0x141>
    sock_set_errno(sock, err);
  801cd5:	0f be c0             	movsbl %al,%eax
  801cd8:	89 43 10             	mov    %eax,0x10(%ebx)
  801cdb:	a3 20 b3 b3 00       	mov    %eax,0xb3b320
    return -1;
  801ce0:	b8 ff ff ff ff       	mov    $0xffffffff,%eax
  801ce5:	e9 9a 00 00 00       	jmp    801d84 <lwip_getsockopt+0x1db>
  }

  /* Now do the actual option processing */
  data.sock = sock;
  801cea:	89 5d cc             	mov    %ebx,-0x34(%ebp)
  data.level = level;
  801ced:	89 75 d4             	mov    %esi,-0x2c(%ebp)
  data.optname = optname;
  801cf0:	8b 45 10             	mov    0x10(%ebp),%eax
  801cf3:	89 45 d8             	mov    %eax,-0x28(%ebp)
  data.optval = optval;
  801cf6:	8b 45 14             	mov    0x14(%ebp),%eax
  801cf9:	89 45 dc             	mov    %eax,-0x24(%ebp)
  data.optlen = optlen;
  801cfc:	89 7d e0             	mov    %edi,-0x20(%ebp)
  data.err = err;
  801cff:	c6 45 e4 00          	movb   $0x0,-0x1c(%ebp)
  tcpip_callback(lwip_getsockopt_internal, &data);
  801d03:	83 ec 04             	sub    $0x4,%esp
  801d06:	6a 01                	push   $0x1
  801d08:	8d 45 cc             	lea    -0x34(%ebp),%eax
  801d0b:	50                   	push   %eax
  801d0c:	68 fe 0b 80 00       	push   $0x800bfe
  801d11:	e8 d4 05 00 00       	call   8022ea <tcpip_callback_with_block>
  sys_arch_sem_wait(sock->conn->op_completed, 0);
  801d16:	83 c4 08             	add    $0x8,%esp
  801d19:	6a 00                	push   $0x0
  801d1b:	8b 03                	mov    (%ebx),%eax
  801d1d:	ff 70 10             	pushl  0x10(%eax)
  801d20:	e8 e4 82 00 00       	call   80a009 <sys_arch_sem_wait>
  /* maybe lwip_getsockopt_internal has changed err */
  err = data.err;
  801d25:	0f b6 45 e4          	movzbl -0x1c(%ebp),%eax

  sock_set_errno(sock, err);
  801d29:	0f be d0             	movsbl %al,%edx
  801d2c:	89 53 10             	mov    %edx,0x10(%ebx)
  801d2f:	89 15 20 b3 b3 00    	mov    %edx,0xb3b320
  return err ? -1 : 0;
  801d35:	83 c4 10             	add    $0x10,%esp
  801d38:	84 c0                	test   %al,%al
  801d3a:	0f 95 c0             	setne  %al
  801d3d:	0f b6 c0             	movzbl %al,%eax
  801d40:	f7 d8                	neg    %eax
  801d42:	eb 40                	jmp    801d84 <lwip_getsockopt+0x1db>
  err_t err = ERR_OK;
  struct lwip_socket *sock = get_socket(s);
  struct lwip_setgetsockopt_data data;

  if (!sock)
    return -1;
  801d44:	b8 ff ff ff ff       	mov    $0xffffffff,%eax
  801d49:	eb 39                	jmp    801d84 <lwip_getsockopt+0x1db>
    case SO_REUSEPORT:
#endif /* SO_REUSE */
    case SO_TYPE:
    /* UNIMPL case SO_USELOOPBACK: */
      if (*optlen < sizeof(int)) {
        err = EINVAL;
  801d4b:	b8 16 00 00 00       	mov    $0x16,%eax
  801d50:	eb 83                	jmp    801cd5 <lwip_getsockopt+0x12c>
      }
#if LWIP_UDP
      if ((sock->conn->type != NETCONN_UDP) ||
          ((udp_flags(sock->conn->pcb.udp) & UDP_FLAGS_UDPLITE) != 0)) {
        /* this flag is only available for UDP, not for UDP lite */
        err = EAFNOSUPPORT;
  801d52:	b8 61 00 00 00       	mov    $0x61,%eax
  801d57:	e9 79 ff ff ff       	jmp    801cd5 <lwip_getsockopt+0x12c>
  801d5c:	b8 61 00 00 00       	mov    $0x61,%eax
  801d61:	e9 6f ff ff ff       	jmp    801cd5 <lwip_getsockopt+0x12c>
    /* UNIMPL case IP_RCVDSTADDR: */
    /* UNIMPL case IP_RCVIF: */
    case IP_TTL:
    case IP_TOS:
      if (*optlen < sizeof(int)) {
        err = EINVAL;
  801d66:	b8 16 00 00 00       	mov    $0x16,%eax
  801d6b:	e9 65 ff ff ff       	jmp    801cd5 <lwip_getsockopt+0x12c>
         
#if LWIP_TCP
/* Level: IPPROTO_TCP */
  case IPPROTO_TCP:
    if (*optlen < sizeof(int)) {
      err = EINVAL;
  801d70:	b8 16 00 00 00       	mov    $0x16,%eax
  801d75:	e9 5b ff ff ff       	jmp    801cd5 <lwip_getsockopt+0x12c>
      break;
       
    default:
      LWIP_DEBUGF(SOCKETS_DEBUG, ("lwip_getsockopt(%d, IPPROTO_TCP, UNIMPL: optname=0x%x, ..)\n",
                                  s, optname));
      err = ENOPROTOOPT;
  801d7a:	b8 5c 00 00 00       	mov    $0x5c,%eax
  801d7f:	e9 51 ff ff ff       	jmp    801cd5 <lwip_getsockopt+0x12c>
  /* maybe lwip_getsockopt_internal has changed err */
  err = data.err;

  sock_set_errno(sock, err);
  return err ? -1 : 0;
}
  801d84:	8d 65 f4             	lea    -0xc(%ebp),%esp
  801d87:	5b                   	pop    %ebx
  801d88:	5e                   	pop    %esi
  801d89:	5f                   	pop    %edi
  801d8a:	5d                   	pop    %ebp
  801d8b:	c3                   	ret    

00801d8c <lwip_setsockopt>:
  sys_sem_signal(sock->conn->op_completed);
}

int
lwip_setsockopt(int s, int level, int optname, const void *optval, socklen_t optlen)
{
  801d8c:	55                   	push   %ebp
  801d8d:	89 e5                	mov    %esp,%ebp
  801d8f:	57                   	push   %edi
  801d90:	56                   	push   %esi
  801d91:	53                   	push   %ebx
  801d92:	83 ec 2c             	sub    $0x2c,%esp
  801d95:	8b 75 0c             	mov    0xc(%ebp),%esi
  801d98:	8b 7d 14             	mov    0x14(%ebp),%edi
  struct lwip_socket *sock = get_socket(s);
  801d9b:	8b 45 08             	mov    0x8(%ebp),%eax
  801d9e:	e8 11 ea ff ff       	call   8007b4 <get_socket>
  801da3:	89 c3                	mov    %eax,%ebx
  int err = ERR_OK;
  struct lwip_setgetsockopt_data data;

  if (!sock)
  801da5:	85 c0                	test   %eax,%eax
  801da7:	0f 84 45 01 00 00    	je     801ef2 <lwip_setsockopt+0x166>
    return -1;

  if (NULL == optval) {
  801dad:	85 ff                	test   %edi,%edi
  801daf:	75 1b                	jne    801dcc <lwip_setsockopt+0x40>
    sock_set_errno(sock, EFAULT);
  801db1:	c7 40 10 0e 00 00 00 	movl   $0xe,0x10(%eax)
  801db8:	c7 05 20 b3 b3 00 0e 	movl   $0xe,0xb3b320
  801dbf:	00 00 00 
    return -1;
  801dc2:	b8 ff ff ff ff       	mov    $0xffffffff,%eax
  801dc7:	e9 63 01 00 00       	jmp    801f2f <lwip_setsockopt+0x1a3>
  }

  /* Do length and type checks for the various options first, to keep it readable. */
  switch (level) {
  801dcc:	83 fe 06             	cmp    $0x6,%esi
  801dcf:	74 7e                	je     801e4f <lwip_setsockopt+0xc3>
  801dd1:	81 fe ff 0f 00 00    	cmp    $0xfff,%esi
  801dd7:	74 0f                	je     801de8 <lwip_setsockopt+0x5c>
#endif /* LWIP_UDP && LWIP_UDPLITE */
/* UNDEFINED LEVEL */
  default:
    LWIP_DEBUGF(SOCKETS_DEBUG, ("lwip_setsockopt(%d, level=0x%x, UNIMPL: optname=0x%x, ..)\n",
                s, level, optname));
    err = ENOPROTOOPT;
  801dd9:	b8 5c 00 00 00       	mov    $0x5c,%eax
    sock_set_errno(sock, EFAULT);
    return -1;
  }

  /* Do length and type checks for the various options first, to keep it readable. */
  switch (level) {
  801dde:	85 f6                	test   %esi,%esi
  801de0:	0f 85 a0 00 00 00    	jne    801e86 <lwip_setsockopt+0xfa>
  801de6:	eb 50                	jmp    801e38 <lwip_setsockopt+0xac>

/* Level: SOL_SOCKET */
  case SOL_SOCKET:
    switch (optname) {
  801de8:	83 7d 10 20          	cmpl   $0x20,0x10(%ebp)
  801dec:	74 18                	je     801e06 <lwip_setsockopt+0x7a>
  801dee:	81 7d 10 0a 10 00 00 	cmpl   $0x100a,0x10(%ebp)
  801df5:	74 1e                	je     801e15 <lwip_setsockopt+0x89>
#endif /* LWIP_UDP */
      break;
    default:
      LWIP_DEBUGF(SOCKETS_DEBUG, ("lwip_setsockopt(%d, SOL_SOCKET, UNIMPL: optname=0x%x, ..)\n",
                  s, optname));
      err = ENOPROTOOPT;
  801df7:	b8 5c 00 00 00       	mov    $0x5c,%eax
  /* Do length and type checks for the various options first, to keep it readable. */
  switch (level) {

/* Level: SOL_SOCKET */
  case SOL_SOCKET:
    switch (optname) {
  801dfc:	83 7d 10 08          	cmpl   $0x8,0x10(%ebp)
  801e00:	0f 85 80 00 00 00    	jne    801e86 <lwip_setsockopt+0xfa>
#if SO_REUSE
    case SO_REUSEADDR:
    case SO_REUSEPORT:
#endif /* SO_REUSE */
    /* UNIMPL case SO_USELOOPBACK: */
      if (optlen < sizeof(int)) {
  801e06:	83 7d 18 03          	cmpl   $0x3,0x18(%ebp)
  801e0a:	0f 86 e9 00 00 00    	jbe    801ef9 <lwip_setsockopt+0x16d>
  801e10:	e9 87 00 00 00       	jmp    801e9c <lwip_setsockopt+0x110>
        err = EINVAL;
      }
      break;
    case SO_NO_CHECK:
      if (optlen < sizeof(int)) {
        err = EINVAL;
  801e15:	83 7d 18 04          	cmpl   $0x4,0x18(%ebp)
  801e19:	19 c0                	sbb    %eax,%eax
  801e1b:	83 e0 16             	and    $0x16,%eax
      }
#if LWIP_UDP
      if ((sock->conn->type != NETCONN_UDP) ||
  801e1e:	8b 13                	mov    (%ebx),%edx
  801e20:	83 3a 20             	cmpl   $0x20,(%edx)
  801e23:	0f 85 d7 00 00 00    	jne    801f00 <lwip_setsockopt+0x174>
          ((udp_flags(sock->conn->pcb.udp) & UDP_FLAGS_UDPLITE) != 0)) {
  801e29:	8b 52 08             	mov    0x8(%edx),%edx
    case SO_NO_CHECK:
      if (optlen < sizeof(int)) {
        err = EINVAL;
      }
#if LWIP_UDP
      if ((sock->conn->type != NETCONN_UDP) ||
  801e2c:	f6 42 10 02          	testb  $0x2,0x10(%edx)
  801e30:	0f 85 d1 00 00 00    	jne    801f07 <lwip_setsockopt+0x17b>
  801e36:	eb 4e                	jmp    801e86 <lwip_setsockopt+0xfa>
    }  /* switch (optname) */
    break;

/* Level: IPPROTO_IP */
  case IPPROTO_IP:
    switch (optname) {
  801e38:	8b 45 10             	mov    0x10(%ebp),%eax
  801e3b:	83 e8 01             	sub    $0x1,%eax
  801e3e:	83 f8 01             	cmp    $0x1,%eax
  801e41:	77 37                	ja     801e7a <lwip_setsockopt+0xee>
    /* UNIMPL case IP_HDRINCL: */
    /* UNIMPL case IP_RCVDSTADDR: */
    /* UNIMPL case IP_RCVIF: */
    case IP_TTL:
    case IP_TOS:
      if (optlen < sizeof(int)) {
  801e43:	83 7d 18 03          	cmpl   $0x3,0x18(%ebp)
  801e47:	0f 86 c4 00 00 00    	jbe    801f11 <lwip_setsockopt+0x185>
  801e4d:	eb 4d                	jmp    801e9c <lwip_setsockopt+0x110>
    break;

#if LWIP_TCP
/* Level: IPPROTO_TCP */
  case IPPROTO_TCP:
    if (optlen < sizeof(int)) {
  801e4f:	83 7d 18 03          	cmpl   $0x3,0x18(%ebp)
  801e53:	0f 86 c2 00 00 00    	jbe    801f1b <lwip_setsockopt+0x18f>
      err = EINVAL;
      break;
    }

    /* If this is no TCP socket, ignore any options. */
    if (sock->conn->type != NETCONN_TCP)
  801e59:	8b 10                	mov    (%eax),%edx
      return 0;
  801e5b:	b8 00 00 00 00       	mov    $0x0,%eax
      err = EINVAL;
      break;
    }

    /* If this is no TCP socket, ignore any options. */
    if (sock->conn->type != NETCONN_TCP)
  801e60:	83 3a 10             	cmpl   $0x10,(%edx)
  801e63:	0f 85 c6 00 00 00    	jne    801f2f <lwip_setsockopt+0x1a3>
      return 0;

    switch (optname) {
  801e69:	8b 45 10             	mov    0x10(%ebp),%eax
  801e6c:	83 e8 01             	sub    $0x1,%eax
  801e6f:	83 f8 01             	cmp    $0x1,%eax
  801e72:	0f 87 ad 00 00 00    	ja     801f25 <lwip_setsockopt+0x199>
  801e78:	eb 07                	jmp    801e81 <lwip_setsockopt+0xf5>
      break;
#endif /* LWIP_IGMP */
      default:
        LWIP_DEBUGF(SOCKETS_DEBUG, ("lwip_setsockopt(%d, IPPROTO_IP, UNIMPL: optname=0x%x, ..)\n",
                    s, optname));
        err = ENOPROTOOPT;
  801e7a:	b8 5c 00 00 00       	mov    $0x5c,%eax
  801e7f:	eb 05                	jmp    801e86 <lwip_setsockopt+0xfa>

int
lwip_setsockopt(int s, int level, int optname, const void *optval, socklen_t optlen)
{
  struct lwip_socket *sock = get_socket(s);
  int err = ERR_OK;
  801e81:	b8 00 00 00 00       	mov    $0x0,%eax
                s, level, optname));
    err = ENOPROTOOPT;
  }  /* switch (level) */


  if (err != ERR_OK) {
  801e86:	85 c0                	test   %eax,%eax
  801e88:	74 12                	je     801e9c <lwip_setsockopt+0x110>
    sock_set_errno(sock, err);
  801e8a:	89 43 10             	mov    %eax,0x10(%ebx)
  801e8d:	a3 20 b3 b3 00       	mov    %eax,0xb3b320
    return -1;
  801e92:	b8 ff ff ff ff       	mov    $0xffffffff,%eax
  801e97:	e9 93 00 00 00       	jmp    801f2f <lwip_setsockopt+0x1a3>
  }


  /* Now do the actual option processing */
  data.sock = sock;
  801e9c:	89 5d cc             	mov    %ebx,-0x34(%ebp)
  data.level = level;
  801e9f:	89 75 d4             	mov    %esi,-0x2c(%ebp)
  data.optname = optname;
  801ea2:	8b 45 10             	mov    0x10(%ebp),%eax
  801ea5:	89 45 d8             	mov    %eax,-0x28(%ebp)
  data.optval = (void*)optval;
  801ea8:	89 7d dc             	mov    %edi,-0x24(%ebp)
  data.optlen = &optlen;
  801eab:	8d 45 18             	lea    0x18(%ebp),%eax
  801eae:	89 45 e0             	mov    %eax,-0x20(%ebp)
  data.err = err;
  801eb1:	c6 45 e4 00          	movb   $0x0,-0x1c(%ebp)
  tcpip_callback(lwip_setsockopt_internal, &data);
  801eb5:	83 ec 04             	sub    $0x4,%esp
  801eb8:	6a 01                	push   $0x1
  801eba:	8d 45 cc             	lea    -0x34(%ebp),%eax
  801ebd:	50                   	push   %eax
  801ebe:	68 81 0d 80 00       	push   $0x800d81
  801ec3:	e8 22 04 00 00       	call   8022ea <tcpip_callback_with_block>
  sys_arch_sem_wait(sock->conn->op_completed, 0);
  801ec8:	83 c4 08             	add    $0x8,%esp
  801ecb:	6a 00                	push   $0x0
  801ecd:	8b 03                	mov    (%ebx),%eax
  801ecf:	ff 70 10             	pushl  0x10(%eax)
  801ed2:	e8 32 81 00 00       	call   80a009 <sys_arch_sem_wait>
  /* maybe lwip_setsockopt_internal has changed err */
  err = data.err;
  801ed7:	0f be 45 e4          	movsbl -0x1c(%ebp),%eax

  sock_set_errno(sock, err);
  801edb:	89 43 10             	mov    %eax,0x10(%ebx)
  801ede:	a3 20 b3 b3 00       	mov    %eax,0xb3b320
  return err ? -1 : 0;
  801ee3:	83 c4 10             	add    $0x10,%esp
  801ee6:	85 c0                	test   %eax,%eax
  801ee8:	0f 95 c0             	setne  %al
  801eeb:	0f b6 c0             	movzbl %al,%eax
  801eee:	f7 d8                	neg    %eax
  801ef0:	eb 3d                	jmp    801f2f <lwip_setsockopt+0x1a3>
  struct lwip_socket *sock = get_socket(s);
  int err = ERR_OK;
  struct lwip_setgetsockopt_data data;

  if (!sock)
    return -1;
  801ef2:	b8 ff ff ff ff       	mov    $0xffffffff,%eax
  801ef7:	eb 36                	jmp    801f2f <lwip_setsockopt+0x1a3>
    case SO_REUSEADDR:
    case SO_REUSEPORT:
#endif /* SO_REUSE */
    /* UNIMPL case SO_USELOOPBACK: */
      if (optlen < sizeof(int)) {
        err = EINVAL;
  801ef9:	b8 16 00 00 00       	mov    $0x16,%eax
  801efe:	eb 8a                	jmp    801e8a <lwip_setsockopt+0xfe>
      }
#if LWIP_UDP
      if ((sock->conn->type != NETCONN_UDP) ||
          ((udp_flags(sock->conn->pcb.udp) & UDP_FLAGS_UDPLITE) != 0)) {
        /* this flag is only available for UDP, not for UDP lite */
        err = EAFNOSUPPORT;
  801f00:	b8 61 00 00 00       	mov    $0x61,%eax
  801f05:	eb 83                	jmp    801e8a <lwip_setsockopt+0xfe>
  801f07:	b8 61 00 00 00       	mov    $0x61,%eax
  801f0c:	e9 79 ff ff ff       	jmp    801e8a <lwip_setsockopt+0xfe>
    /* UNIMPL case IP_RCVDSTADDR: */
    /* UNIMPL case IP_RCVIF: */
    case IP_TTL:
    case IP_TOS:
      if (optlen < sizeof(int)) {
        err = EINVAL;
  801f11:	b8 16 00 00 00       	mov    $0x16,%eax
  801f16:	e9 6f ff ff ff       	jmp    801e8a <lwip_setsockopt+0xfe>

#if LWIP_TCP
/* Level: IPPROTO_TCP */
  case IPPROTO_TCP:
    if (optlen < sizeof(int)) {
      err = EINVAL;
  801f1b:	b8 16 00 00 00       	mov    $0x16,%eax
  801f20:	e9 65 ff ff ff       	jmp    801e8a <lwip_setsockopt+0xfe>
      break;

    default:
      LWIP_DEBUGF(SOCKETS_DEBUG, ("lwip_setsockopt(%d, IPPROTO_TCP, UNIMPL: optname=0x%x, ..)\n",
                  s, optname));
      err = ENOPROTOOPT;
  801f25:	b8 5c 00 00 00       	mov    $0x5c,%eax
  801f2a:	e9 5b ff ff ff       	jmp    801e8a <lwip_setsockopt+0xfe>
  /* maybe lwip_setsockopt_internal has changed err */
  err = data.err;

  sock_set_errno(sock, err);
  return err ? -1 : 0;
}
  801f2f:	8d 65 f4             	lea    -0xc(%ebp),%esp
  801f32:	5b                   	pop    %ebx
  801f33:	5e                   	pop    %esi
  801f34:	5f                   	pop    %edi
  801f35:	5d                   	pop    %ebp
  801f36:	c3                   	ret    

00801f37 <lwip_ioctl>:
  sys_sem_signal(sock->conn->op_completed);
}

int
lwip_ioctl(int s, long cmd, void *argp)
{
  801f37:	55                   	push   %ebp
  801f38:	89 e5                	mov    %esp,%ebp
  801f3a:	56                   	push   %esi
  801f3b:	53                   	push   %ebx
  801f3c:	8b 5d 0c             	mov    0xc(%ebp),%ebx
  801f3f:	8b 75 10             	mov    0x10(%ebp),%esi
  struct lwip_socket *sock = get_socket(s);
  801f42:	8b 45 08             	mov    0x8(%ebp),%eax
  801f45:	e8 6a e8 ff ff       	call   8007b4 <get_socket>
  u16_t buflen = 0;

  if (!sock)
  801f4a:	85 c0                	test   %eax,%eax
  801f4c:	0f 84 af 00 00 00    	je     802001 <lwip_ioctl+0xca>
    return -1;

  switch (cmd) {
  801f52:	81 fb 7e 66 04 80    	cmp    $0x8004667e,%ebx
  801f58:	74 60                	je     801fba <lwip_ioctl+0x83>
  801f5a:	81 fb 7f 66 04 40    	cmp    $0x4004667f,%ebx
  801f60:	0f 85 83 00 00 00    	jne    801fe9 <lwip_ioctl+0xb2>
  case FIONREAD:
    if (!argp) {
  801f66:	85 f6                	test   %esi,%esi
  801f68:	75 1b                	jne    801f85 <lwip_ioctl+0x4e>
      sock_set_errno(sock, EINVAL);
  801f6a:	c7 40 10 16 00 00 00 	movl   $0x16,0x10(%eax)
  801f71:	c7 05 20 b3 b3 00 16 	movl   $0x16,0xb3b320
  801f78:	00 00 00 
      return -1;
  801f7b:	b8 ff ff ff ff       	mov    $0xffffffff,%eax
  801f80:	e9 81 00 00 00       	jmp    802006 <lwip_ioctl+0xcf>
    }

    SYS_ARCH_GET(sock->conn->recv_avail, *((u16_t*)argp));
  801f85:	8b 10                	mov    (%eax),%edx
  801f87:	0f b7 52 20          	movzwl 0x20(%edx),%edx
  801f8b:	66 89 16             	mov    %dx,(%esi)

    /* Check if there is data left from the last recv operation. /maq 041215 */
    if (sock->lastdata) {
  801f8e:	8b 48 04             	mov    0x4(%eax),%ecx
  801f91:	85 c9                	test   %ecx,%ecx
  801f93:	74 0d                	je     801fa2 <lwip_ioctl+0x6b>
      buflen = netbuf_len(sock->lastdata);
  801f95:	8b 09                	mov    (%ecx),%ecx
  801f97:	66 03 51 08          	add    0x8(%ecx),%dx
      buflen -= sock->lastoffset;

      *((u16_t*)argp) += buflen;
  801f9b:	66 2b 50 08          	sub    0x8(%eax),%dx
  801f9f:	66 89 16             	mov    %dx,(%esi)
    }

    LWIP_DEBUGF(SOCKETS_DEBUG, ("lwip_ioctl(%d, FIONREAD, %p) = %u\n", s, argp, *((u16_t*)argp)));
    sock_set_errno(sock, 0);
  801fa2:	c7 40 10 00 00 00 00 	movl   $0x0,0x10(%eax)
  801fa9:	c7 05 20 b3 b3 00 00 	movl   $0x0,0xb3b320
  801fb0:	00 00 00 
    return 0;
  801fb3:	b8 00 00 00 00       	mov    $0x0,%eax
  801fb8:	eb 4c                	jmp    802006 <lwip_ioctl+0xcf>

  case FIONBIO:
    if (argp && *(u32_t*)argp)
  801fba:	85 f6                	test   %esi,%esi
  801fbc:	74 0d                	je     801fcb <lwip_ioctl+0x94>
  801fbe:	83 3e 00             	cmpl   $0x0,(%esi)
  801fc1:	74 08                	je     801fcb <lwip_ioctl+0x94>
      sock->flags |= O_NONBLOCK;
  801fc3:	66 81 48 0e 00 08    	orw    $0x800,0xe(%eax)
  801fc9:	eb 06                	jmp    801fd1 <lwip_ioctl+0x9a>
    else
      sock->flags &= ~O_NONBLOCK;
  801fcb:	66 81 60 0e ff f7    	andw   $0xf7ff,0xe(%eax)
    LWIP_DEBUGF(SOCKETS_DEBUG, ("lwip_ioctl(%d, FIONBIO, %d)\n", s, !!(sock->flags & O_NONBLOCK)));
    sock_set_errno(sock, 0);
  801fd1:	c7 40 10 00 00 00 00 	movl   $0x0,0x10(%eax)
  801fd8:	c7 05 20 b3 b3 00 00 	movl   $0x0,0xb3b320
  801fdf:	00 00 00 
    return 0;
  801fe2:	b8 00 00 00 00       	mov    $0x0,%eax
  801fe7:	eb 1d                	jmp    802006 <lwip_ioctl+0xcf>

  default:
    LWIP_DEBUGF(SOCKETS_DEBUG, ("lwip_ioctl(%d, UNIMPL: 0x%lx, %p)\n", s, cmd, argp));
    sock_set_errno(sock, ENOSYS); /* not yet implemented */
  801fe9:	c7 40 10 26 00 00 00 	movl   $0x26,0x10(%eax)
  801ff0:	c7 05 20 b3 b3 00 26 	movl   $0x26,0xb3b320
  801ff7:	00 00 00 
    return -1;
  801ffa:	b8 ff ff ff ff       	mov    $0xffffffff,%eax
  801fff:	eb 05                	jmp    802006 <lwip_ioctl+0xcf>
{
  struct lwip_socket *sock = get_socket(s);
  u16_t buflen = 0;

  if (!sock)
    return -1;
  802001:	b8 ff ff ff ff       	mov    $0xffffffff,%eax
  default:
    LWIP_DEBUGF(SOCKETS_DEBUG, ("lwip_ioctl(%d, UNIMPL: 0x%lx, %p)\n", s, cmd, argp));
    sock_set_errno(sock, ENOSYS); /* not yet implemented */
    return -1;
  } /* switch (cmd) */
}
  802006:	5b                   	pop    %ebx
  802007:	5e                   	pop    %esi
  802008:	5d                   	pop    %ebp
  802009:	c3                   	ret    

0080200a <tcpip_tcp_timer>:
 *
 * @param arg unused argument
 */
static void
tcpip_tcp_timer(void *arg)
{
  80200a:	55                   	push   %ebp
  80200b:	89 e5                	mov    %esp,%ebp
  80200d:	83 ec 08             	sub    $0x8,%esp
  LWIP_UNUSED_ARG(arg);

  /* call TCP timer handler */
  tcp_tmr();
  802010:	e8 b2 40 00 00       	call   8060c7 <tcp_tmr>
  /* timer still needed? */
  if (tcp_active_pcbs || tcp_tw_pcbs) {
  802015:	83 3d 7c b3 b3 00 00 	cmpl   $0x0,0xb3b37c
  80201c:	75 09                	jne    802027 <tcpip_tcp_timer+0x1d>
  80201e:	83 3d 90 b3 b3 00 00 	cmpl   $0x0,0xb3b390
  802025:	74 19                	je     802040 <tcpip_tcp_timer+0x36>
    /* restart timer */
    sys_timeout(TCP_TMR_INTERVAL, tcpip_tcp_timer, NULL);
  802027:	83 ec 04             	sub    $0x4,%esp
  80202a:	6a 00                	push   $0x0
  80202c:	68 0a 20 80 00       	push   $0x80200a
  802031:	68 fa 00 00 00       	push   $0xfa
  802036:	e8 05 31 00 00       	call   805140 <sys_timeout>
  80203b:	83 c4 10             	add    $0x10,%esp
  80203e:	eb 0a                	jmp    80204a <tcpip_tcp_timer+0x40>
  } else {
    /* disable timer */
    tcpip_tcp_timer_active = 0;
  802040:	c7 05 40 53 81 00 00 	movl   $0x0,0x815340
  802047:	00 00 00 
  }
}
  80204a:	c9                   	leave  
  80204b:	c3                   	ret    

0080204c <tcpip_thread>:
 *
 * @param arg unused argument
 */
static void
tcpip_thread(void *arg)
{
  80204c:	55                   	push   %ebp
  80204d:	89 e5                	mov    %esp,%ebp
  80204f:	53                   	push   %ebx
  802050:	83 ec 18             	sub    $0x18,%esp
  struct tcpip_msg *msg;
  LWIP_UNUSED_ARG(arg);

#if IP_REASSEMBLY
  sys_timeout(IP_TMR_INTERVAL, ip_reass_timer, NULL);
  802053:	6a 00                	push   $0x0
  802055:	68 02 22 80 00       	push   $0x802202
  80205a:	68 e8 03 00 00       	push   $0x3e8
  80205f:	e8 dc 30 00 00       	call   805140 <sys_timeout>
#endif /* IP_REASSEMBLY */
#if LWIP_ARP
  sys_timeout(ARP_TMR_INTERVAL, arp_timer, NULL);
  802064:	83 c4 0c             	add    $0xc,%esp
  802067:	6a 00                	push   $0x0
  802069:	68 de 21 80 00       	push   $0x8021de
  80206e:	68 88 13 00 00       	push   $0x1388
  802073:	e8 c8 30 00 00       	call   805140 <sys_timeout>
#endif /* LWIP_ARP */
#if LWIP_DHCP
  sys_timeout(DHCP_COARSE_TIMER_MSECS, dhcp_timer_coarse, NULL);
  802078:	83 c4 0c             	add    $0xc,%esp
  80207b:	6a 00                	push   $0x0
  80207d:	68 ba 21 80 00       	push   $0x8021ba
  802082:	68 60 ea 00 00       	push   $0xea60
  802087:	e8 b4 30 00 00       	call   805140 <sys_timeout>
  sys_timeout(DHCP_FINE_TIMER_MSECS, dhcp_timer_fine, NULL);
  80208c:	83 c4 0c             	add    $0xc,%esp
  80208f:	6a 00                	push   $0x0
  802091:	68 96 21 80 00       	push   $0x802196
  802096:	68 f4 01 00 00       	push   $0x1f4
  80209b:	e8 a0 30 00 00       	call   805140 <sys_timeout>
#endif /* LWIP_IGMP */
#if LWIP_DNS
  sys_timeout(DNS_TMR_INTERVAL, dns_timer, NULL);
#endif /* LWIP_DNS */

  if (tcpip_init_done != NULL) {
  8020a0:	a1 48 53 81 00       	mov    0x815348,%eax
  8020a5:	83 c4 10             	add    $0x10,%esp
  8020a8:	85 c0                	test   %eax,%eax
  8020aa:	74 0e                	je     8020ba <tcpip_thread+0x6e>
    tcpip_init_done(tcpip_init_done_arg);
  8020ac:	83 ec 0c             	sub    $0xc,%esp
  8020af:	ff 35 44 53 81 00    	pushl  0x815344
  8020b5:	ff d0                	call   *%eax
  8020b7:	83 c4 10             	add    $0x10,%esp
  }

  LOCK_TCPIP_CORE();
  while (1) {                          /* MAIN Loop */
    sys_mbox_fetch(mbox, (void *)&msg);
  8020ba:	8d 5d f4             	lea    -0xc(%ebp),%ebx
  8020bd:	83 ec 08             	sub    $0x8,%esp
  8020c0:	53                   	push   %ebx
  8020c1:	ff 35 00 40 81 00    	pushl  0x814000
  8020c7:	e8 52 2f 00 00       	call   80501e <sys_mbox_fetch>
    switch (msg->type) {
  8020cc:	8b 55 f4             	mov    -0xc(%ebp),%edx
  8020cf:	83 c4 10             	add    $0x10,%esp
  8020d2:	8b 02                	mov    (%edx),%eax
  8020d4:	83 f8 01             	cmp    $0x1,%eax
  8020d7:	74 22                	je     8020fb <tcpip_thread+0xaf>
  8020d9:	83 f8 01             	cmp    $0x1,%eax
  8020dc:	72 0c                	jb     8020ea <tcpip_thread+0x9e>
  8020de:	83 f8 02             	cmp    $0x2,%eax
  8020e1:	74 53                	je     802136 <tcpip_thread+0xea>
  8020e3:	83 f8 03             	cmp    $0x3,%eax
  8020e6:	74 6c                	je     802154 <tcpip_thread+0x108>
  8020e8:	eb d3                	jmp    8020bd <tcpip_thread+0x71>
#if LWIP_NETCONN
    case TCPIP_MSG_API:
      LWIP_DEBUGF(TCPIP_DEBUG, ("tcpip_thread: API message %p\n", (void *)msg));
      msg->msg.apimsg->function(&(msg->msg.apimsg->msg));
  8020ea:	8b 42 08             	mov    0x8(%edx),%eax
  8020ed:	83 ec 0c             	sub    $0xc,%esp
  8020f0:	8d 50 04             	lea    0x4(%eax),%edx
  8020f3:	52                   	push   %edx
  8020f4:	ff 10                	call   *(%eax)
      break;
  8020f6:	83 c4 10             	add    $0x10,%esp
  8020f9:	eb c2                	jmp    8020bd <tcpip_thread+0x71>
#endif /* LWIP_NETCONN */

    case TCPIP_MSG_INPKT:
      LWIP_DEBUGF(TCPIP_DEBUG, ("tcpip_thread: PACKET %p\n", (void *)msg));
#if LWIP_ARP
      if (msg->msg.inp.netif->flags & NETIF_FLAG_ETHARP) {
  8020fb:	8b 42 0c             	mov    0xc(%edx),%eax
  8020fe:	f6 40 2e 20          	testb  $0x20,0x2e(%eax)
  802102:	74 11                	je     802115 <tcpip_thread+0xc9>
        ethernet_input(msg->msg.inp.p, msg->msg.inp.netif);
  802104:	83 ec 08             	sub    $0x8,%esp
  802107:	50                   	push   %eax
  802108:	ff 72 08             	pushl  0x8(%edx)
  80210b:	e8 34 7a 00 00       	call   809b44 <ethernet_input>
  802110:	83 c4 10             	add    $0x10,%esp
  802113:	eb 0f                	jmp    802124 <tcpip_thread+0xd8>
      } else
#endif /* LWIP_ARP */
      { ip_input(msg->msg.inp.p, msg->msg.inp.netif);
  802115:	83 ec 08             	sub    $0x8,%esp
  802118:	50                   	push   %eax
  802119:	ff 72 08             	pushl  0x8(%edx)
  80211c:	e8 b5 43 00 00       	call   8064d6 <ip_input>
  802121:	83 c4 10             	add    $0x10,%esp
      }
      memp_free(MEMP_TCPIP_MSG_INPKT, msg);
  802124:	83 ec 08             	sub    $0x8,%esp
  802127:	ff 75 f4             	pushl  -0xc(%ebp)
  80212a:	6a 09                	push   $0x9
  80212c:	e8 4b 23 00 00       	call   80447c <memp_free>
      break;
  802131:	83 c4 10             	add    $0x10,%esp
  802134:	eb 87                	jmp    8020bd <tcpip_thread+0x71>
      break;
#endif /* LWIP_NETIF_API */

    case TCPIP_MSG_CALLBACK:
      LWIP_DEBUGF(TCPIP_DEBUG, ("tcpip_thread: CALLBACK %p\n", (void *)msg));
      msg->msg.cb.f(msg->msg.cb.ctx);
  802136:	83 ec 0c             	sub    $0xc,%esp
  802139:	ff 72 0c             	pushl  0xc(%edx)
  80213c:	ff 52 08             	call   *0x8(%edx)
      memp_free(MEMP_TCPIP_MSG_API, msg);
  80213f:	83 c4 08             	add    $0x8,%esp
  802142:	ff 75 f4             	pushl  -0xc(%ebp)
  802145:	6a 08                	push   $0x8
  802147:	e8 30 23 00 00       	call   80447c <memp_free>
      break;
  80214c:	83 c4 10             	add    $0x10,%esp
  80214f:	e9 69 ff ff ff       	jmp    8020bd <tcpip_thread+0x71>

    case TCPIP_MSG_TIMEOUT:
      LWIP_DEBUGF(TCPIP_DEBUG, ("tcpip_thread: TIMEOUT %p\n", (void *)msg));

      if(msg->msg.tmo.msecs != 0xffffffff)
  802154:	8b 42 08             	mov    0x8(%edx),%eax
  802157:	83 f8 ff             	cmp    $0xffffffff,%eax
  80215a:	74 14                	je     802170 <tcpip_thread+0x124>
        sys_timeout (msg->msg.tmo.msecs, msg->msg.tmo.h, msg->msg.tmo.arg);
  80215c:	83 ec 04             	sub    $0x4,%esp
  80215f:	ff 72 10             	pushl  0x10(%edx)
  802162:	ff 72 0c             	pushl  0xc(%edx)
  802165:	50                   	push   %eax
  802166:	e8 d5 2f 00 00       	call   805140 <sys_timeout>
  80216b:	83 c4 10             	add    $0x10,%esp
  80216e:	eb 11                	jmp    802181 <tcpip_thread+0x135>
      else
        sys_untimeout (msg->msg.tmo.h, msg->msg.tmo.arg);
  802170:	83 ec 08             	sub    $0x8,%esp
  802173:	ff 72 10             	pushl  0x10(%edx)
  802176:	ff 72 0c             	pushl  0xc(%edx)
  802179:	e8 73 30 00 00       	call   8051f1 <sys_untimeout>
  80217e:	83 c4 10             	add    $0x10,%esp
      memp_free(MEMP_TCPIP_MSG_API, msg);
  802181:	83 ec 08             	sub    $0x8,%esp
  802184:	ff 75 f4             	pushl  -0xc(%ebp)
  802187:	6a 08                	push   $0x8
  802189:	e8 ee 22 00 00       	call   80447c <memp_free>
      break;
  80218e:	83 c4 10             	add    $0x10,%esp
  802191:	e9 27 ff ff ff       	jmp    8020bd <tcpip_thread+0x71>

00802196 <dhcp_timer_fine>:
 *
 * @param arg unused argument
 */
static void
dhcp_timer_fine(void *arg)
{
  802196:	55                   	push   %ebp
  802197:	89 e5                	mov    %esp,%ebp
  802199:	83 ec 08             	sub    $0x8,%esp
  LWIP_UNUSED_ARG(arg);
  LWIP_DEBUGF(TCPIP_DEBUG, ("tcpip: dhcp_fine_tmr()\n"));
  dhcp_fine_tmr();
  80219c:	e8 05 1b 00 00       	call   803ca6 <dhcp_fine_tmr>
  sys_timeout(DHCP_FINE_TIMER_MSECS, dhcp_timer_fine, NULL);
  8021a1:	83 ec 04             	sub    $0x4,%esp
  8021a4:	6a 00                	push   $0x0
  8021a6:	68 96 21 80 00       	push   $0x802196
  8021ab:	68 f4 01 00 00       	push   $0x1f4
  8021b0:	e8 8b 2f 00 00       	call   805140 <sys_timeout>
  8021b5:	83 c4 10             	add    $0x10,%esp
}
  8021b8:	c9                   	leave  
  8021b9:	c3                   	ret    

008021ba <dhcp_timer_coarse>:
 *
 * @param arg unused argument
 */
static void
dhcp_timer_coarse(void *arg)
{
  8021ba:	55                   	push   %ebp
  8021bb:	89 e5                	mov    %esp,%ebp
  8021bd:	83 ec 08             	sub    $0x8,%esp
  LWIP_UNUSED_ARG(arg);
  LWIP_DEBUGF(TCPIP_DEBUG, ("tcpip: dhcp_coarse_tmr()\n"));
  dhcp_coarse_tmr();
  8021c0:	e8 1d 19 00 00       	call   803ae2 <dhcp_coarse_tmr>
  sys_timeout(DHCP_COARSE_TIMER_MSECS, dhcp_timer_coarse, NULL);
  8021c5:	83 ec 04             	sub    $0x4,%esp
  8021c8:	6a 00                	push   $0x0
  8021ca:	68 ba 21 80 00       	push   $0x8021ba
  8021cf:	68 60 ea 00 00       	push   $0xea60
  8021d4:	e8 67 2f 00 00       	call   805140 <sys_timeout>
  8021d9:	83 c4 10             	add    $0x10,%esp
}
  8021dc:	c9                   	leave  
  8021dd:	c3                   	ret    

008021de <arp_timer>:
 *
 * @param arg unused argument
 */
static void
arp_timer(void *arg)
{
  8021de:	55                   	push   %ebp
  8021df:	89 e5                	mov    %esp,%ebp
  8021e1:	83 ec 08             	sub    $0x8,%esp
  LWIP_UNUSED_ARG(arg);
  LWIP_DEBUGF(TCPIP_DEBUG, ("tcpip: etharp_tmr()\n"));
  etharp_tmr();
  8021e4:	e8 15 72 00 00       	call   8093fe <etharp_tmr>
  sys_timeout(ARP_TMR_INTERVAL, arp_timer, NULL);
  8021e9:	83 ec 04             	sub    $0x4,%esp
  8021ec:	6a 00                	push   $0x0
  8021ee:	68 de 21 80 00       	push   $0x8021de
  8021f3:	68 88 13 00 00       	push   $0x1388
  8021f8:	e8 43 2f 00 00       	call   805140 <sys_timeout>
  8021fd:	83 c4 10             	add    $0x10,%esp
}
  802200:	c9                   	leave  
  802201:	c3                   	ret    

00802202 <ip_reass_timer>:
 *
 * @param arg unused argument
 */
static void
ip_reass_timer(void *arg)
{
  802202:	55                   	push   %ebp
  802203:	89 e5                	mov    %esp,%ebp
  802205:	83 ec 08             	sub    $0x8,%esp
  LWIP_UNUSED_ARG(arg);
  LWIP_DEBUGF(TCPIP_DEBUG, ("tcpip: ip_reass_tmr()\n"));
  ip_reass_tmr();
  802208:	e8 9b 49 00 00       	call   806ba8 <ip_reass_tmr>
  sys_timeout(IP_TMR_INTERVAL, ip_reass_timer, NULL);
  80220d:	83 ec 04             	sub    $0x4,%esp
  802210:	6a 00                	push   $0x0
  802212:	68 02 22 80 00       	push   $0x802202
  802217:	68 e8 03 00 00       	push   $0x3e8
  80221c:	e8 1f 2f 00 00       	call   805140 <sys_timeout>
  802221:	83 c4 10             	add    $0x10,%esp
}
  802224:	c9                   	leave  
  802225:	c3                   	ret    

00802226 <pbuf_free_int>:
 *
 * @param p The pbuf (chain) to be dereferenced.
 */
static void
pbuf_free_int(void *p)
{
  802226:	55                   	push   %ebp
  802227:	89 e5                	mov    %esp,%ebp
  802229:	83 ec 14             	sub    $0x14,%esp
  struct pbuf *q = p;
  pbuf_free(q);
  80222c:	ff 75 08             	pushl  0x8(%ebp)
  80222f:	e8 bb 25 00 00       	call   8047ef <pbuf_free>
  802234:	83 c4 10             	add    $0x10,%esp
}
  802237:	c9                   	leave  
  802238:	c3                   	ret    

00802239 <tcp_timer_needed>:
 * the reason is to have the TCP timer only running when
 * there are active (or time-wait) PCBs.
 */
void
tcp_timer_needed(void)
{
  802239:	55                   	push   %ebp
  80223a:	89 e5                	mov    %esp,%ebp
  80223c:	83 ec 08             	sub    $0x8,%esp
  /* timer is off but needed again? */
  if (!tcpip_tcp_timer_active && (tcp_active_pcbs || tcp_tw_pcbs)) {
  80223f:	83 3d 40 53 81 00 00 	cmpl   $0x0,0x815340
  802246:	75 33                	jne    80227b <tcp_timer_needed+0x42>
  802248:	83 3d 7c b3 b3 00 00 	cmpl   $0x0,0xb3b37c
  80224f:	75 09                	jne    80225a <tcp_timer_needed+0x21>
  802251:	83 3d 90 b3 b3 00 00 	cmpl   $0x0,0xb3b390
  802258:	74 21                	je     80227b <tcp_timer_needed+0x42>
    /* enable and start timer */
    tcpip_tcp_timer_active = 1;
  80225a:	c7 05 40 53 81 00 01 	movl   $0x1,0x815340
  802261:	00 00 00 
    sys_timeout(TCP_TMR_INTERVAL, tcpip_tcp_timer, NULL);
  802264:	83 ec 04             	sub    $0x4,%esp
  802267:	6a 00                	push   $0x0
  802269:	68 0a 20 80 00       	push   $0x80200a
  80226e:	68 fa 00 00 00       	push   $0xfa
  802273:	e8 c8 2e 00 00       	call   805140 <sys_timeout>
  802278:	83 c4 10             	add    $0x10,%esp
  }
}
  80227b:	c9                   	leave  
  80227c:	c3                   	ret    

0080227d <tcpip_input>:
err_t
tcpip_input(struct pbuf *p, struct netif *inp)
{
  struct tcpip_msg *msg;

  if (mbox != SYS_MBOX_NULL) {
  80227d:	83 3d 00 40 81 00 ff 	cmpl   $0xffffffff,0x814000
  802284:	74 54                	je     8022da <tcpip_input+0x5d>
 *          to an IP header (if netif doesn't got NETIF_FLAG_ETHARP flag)
 * @param inp the network interface on which the packet was received
 */
err_t
tcpip_input(struct pbuf *p, struct netif *inp)
{
  802286:	55                   	push   %ebp
  802287:	89 e5                	mov    %esp,%ebp
  802289:	53                   	push   %ebx
  80228a:	83 ec 10             	sub    $0x10,%esp
  struct tcpip_msg *msg;

  if (mbox != SYS_MBOX_NULL) {
    msg = memp_malloc(MEMP_TCPIP_MSG_INPKT);
  80228d:	6a 09                	push   $0x9
  80228f:	e8 92 21 00 00       	call   804426 <memp_malloc>
  802294:	89 c3                	mov    %eax,%ebx
    if (msg == NULL) {
  802296:	83 c4 10             	add    $0x10,%esp
  802299:	85 c0                	test   %eax,%eax
  80229b:	74 43                	je     8022e0 <tcpip_input+0x63>
      return ERR_MEM;
    }

    msg->type = TCPIP_MSG_INPKT;
  80229d:	c7 00 01 00 00 00    	movl   $0x1,(%eax)
    msg->msg.inp.p = p;
  8022a3:	8b 45 08             	mov    0x8(%ebp),%eax
  8022a6:	89 43 08             	mov    %eax,0x8(%ebx)
    msg->msg.inp.netif = inp;
  8022a9:	8b 45 0c             	mov    0xc(%ebp),%eax
  8022ac:	89 43 0c             	mov    %eax,0xc(%ebx)
    if (sys_mbox_trypost(mbox, msg) != ERR_OK) {
  8022af:	83 ec 08             	sub    $0x8,%esp
  8022b2:	53                   	push   %ebx
  8022b3:	ff 35 00 40 81 00    	pushl  0x814000
  8022b9:	e8 58 7e 00 00       	call   80a116 <sys_mbox_trypost>
  8022be:	83 c4 10             	add    $0x10,%esp
  8022c1:	84 c0                	test   %al,%al
  8022c3:	74 20                	je     8022e5 <tcpip_input+0x68>
      memp_free(MEMP_TCPIP_MSG_INPKT, msg);
  8022c5:	83 ec 08             	sub    $0x8,%esp
  8022c8:	53                   	push   %ebx
  8022c9:	6a 09                	push   $0x9
  8022cb:	e8 ac 21 00 00       	call   80447c <memp_free>
      return ERR_MEM;
  8022d0:	83 c4 10             	add    $0x10,%esp
  8022d3:	b8 ff ff ff ff       	mov    $0xffffffff,%eax
  8022d8:	eb 0b                	jmp    8022e5 <tcpip_input+0x68>
    }
    return ERR_OK;
  }
  return ERR_VAL;
  8022da:	b8 f7 ff ff ff       	mov    $0xfffffff7,%eax
}
  8022df:	c3                   	ret    
  struct tcpip_msg *msg;

  if (mbox != SYS_MBOX_NULL) {
    msg = memp_malloc(MEMP_TCPIP_MSG_INPKT);
    if (msg == NULL) {
      return ERR_MEM;
  8022e0:	b8 ff ff ff ff       	mov    $0xffffffff,%eax
      return ERR_MEM;
    }
    return ERR_OK;
  }
  return ERR_VAL;
}
  8022e5:	8b 5d fc             	mov    -0x4(%ebp),%ebx
  8022e8:	c9                   	leave  
  8022e9:	c3                   	ret    

008022ea <tcpip_callback_with_block>:
 * @param block 1 to block until the request is posted, 0 to non-blocking mode
 * @return ERR_OK if the function was called, another err_t if not
 */
err_t
tcpip_callback_with_block(void (*f)(void *ctx), void *ctx, u8_t block)
{
  8022ea:	55                   	push   %ebp
  8022eb:	89 e5                	mov    %esp,%ebp
  8022ed:	56                   	push   %esi
  8022ee:	53                   	push   %ebx
  8022ef:	8b 75 10             	mov    0x10(%ebp),%esi
  struct tcpip_msg *msg;

  if (mbox != SYS_MBOX_NULL) {
  8022f2:	83 3d 00 40 81 00 ff 	cmpl   $0xffffffff,0x814000
  8022f9:	74 6f                	je     80236a <tcpip_callback_with_block+0x80>
    msg = memp_malloc(MEMP_TCPIP_MSG_API);
  8022fb:	83 ec 0c             	sub    $0xc,%esp
  8022fe:	6a 08                	push   $0x8
  802300:	e8 21 21 00 00       	call   804426 <memp_malloc>
  802305:	89 c3                	mov    %eax,%ebx
    if (msg == NULL) {
  802307:	83 c4 10             	add    $0x10,%esp
  80230a:	85 c0                	test   %eax,%eax
  80230c:	74 63                	je     802371 <tcpip_callback_with_block+0x87>
      return ERR_MEM;
    }

    msg->type = TCPIP_MSG_CALLBACK;
  80230e:	c7 00 02 00 00 00    	movl   $0x2,(%eax)
    msg->msg.cb.f = f;
  802314:	8b 45 08             	mov    0x8(%ebp),%eax
  802317:	89 43 08             	mov    %eax,0x8(%ebx)
    msg->msg.cb.ctx = ctx;
  80231a:	8b 45 0c             	mov    0xc(%ebp),%eax
  80231d:	89 43 0c             	mov    %eax,0xc(%ebx)
    if (block) {
  802320:	89 f0                	mov    %esi,%eax
  802322:	84 c0                	test   %al,%al
  802324:	74 19                	je     80233f <tcpip_callback_with_block+0x55>
      sys_mbox_post(mbox, msg);
  802326:	83 ec 08             	sub    $0x8,%esp
  802329:	53                   	push   %ebx
  80232a:	ff 35 00 40 81 00    	pushl  0x814000
  802330:	e8 a4 7e 00 00       	call   80a1d9 <sys_mbox_post>
  802335:	83 c4 10             	add    $0x10,%esp
      if (sys_mbox_trypost(mbox, msg) != ERR_OK) {
        memp_free(MEMP_TCPIP_MSG_API, msg);
        return ERR_MEM;
      }
    }
    return ERR_OK;
  802338:	b8 00 00 00 00       	mov    $0x0,%eax
  80233d:	eb 37                	jmp    802376 <tcpip_callback_with_block+0x8c>
    msg->msg.cb.f = f;
    msg->msg.cb.ctx = ctx;
    if (block) {
      sys_mbox_post(mbox, msg);
    } else {
      if (sys_mbox_trypost(mbox, msg) != ERR_OK) {
  80233f:	83 ec 08             	sub    $0x8,%esp
  802342:	53                   	push   %ebx
  802343:	ff 35 00 40 81 00    	pushl  0x814000
  802349:	e8 c8 7d 00 00       	call   80a116 <sys_mbox_trypost>
  80234e:	83 c4 10             	add    $0x10,%esp
  802351:	84 c0                	test   %al,%al
  802353:	74 21                	je     802376 <tcpip_callback_with_block+0x8c>
        memp_free(MEMP_TCPIP_MSG_API, msg);
  802355:	83 ec 08             	sub    $0x8,%esp
  802358:	53                   	push   %ebx
  802359:	6a 08                	push   $0x8
  80235b:	e8 1c 21 00 00       	call   80447c <memp_free>
        return ERR_MEM;
  802360:	83 c4 10             	add    $0x10,%esp
  802363:	b8 ff ff ff ff       	mov    $0xffffffff,%eax
  802368:	eb 0c                	jmp    802376 <tcpip_callback_with_block+0x8c>
      }
    }
    return ERR_OK;
  }
  return ERR_VAL;
  80236a:	b8 f7 ff ff ff       	mov    $0xfffffff7,%eax
  80236f:	eb 05                	jmp    802376 <tcpip_callback_with_block+0x8c>
  struct tcpip_msg *msg;

  if (mbox != SYS_MBOX_NULL) {
    msg = memp_malloc(MEMP_TCPIP_MSG_API);
    if (msg == NULL) {
      return ERR_MEM;
  802371:	b8 ff ff ff ff       	mov    $0xffffffff,%eax
      }
    }
    return ERR_OK;
  }
  return ERR_VAL;
}
  802376:	8d 65 f8             	lea    -0x8(%ebp),%esp
  802379:	5b                   	pop    %ebx
  80237a:	5e                   	pop    %esi
  80237b:	5d                   	pop    %ebp
  80237c:	c3                   	ret    

0080237d <tcpip_timeout>:
err_t
tcpip_timeout(u32_t msecs, sys_timeout_handler h, void *arg)
{
  struct tcpip_msg *msg;

  if (mbox != SYS_MBOX_NULL) {
  80237d:	83 3d 00 40 81 00 ff 	cmpl   $0xffffffff,0x814000
  802384:	74 45                	je     8023cb <tcpip_timeout+0x4e>
  return ERR_VAL;
}

err_t
tcpip_timeout(u32_t msecs, sys_timeout_handler h, void *arg)
{
  802386:	55                   	push   %ebp
  802387:	89 e5                	mov    %esp,%ebp
  802389:	83 ec 14             	sub    $0x14,%esp
  struct tcpip_msg *msg;

  if (mbox != SYS_MBOX_NULL) {
    msg = memp_malloc(MEMP_TCPIP_MSG_API);
  80238c:	6a 08                	push   $0x8
  80238e:	e8 93 20 00 00       	call   804426 <memp_malloc>
    if (msg == NULL) {
  802393:	83 c4 10             	add    $0x10,%esp
  802396:	85 c0                	test   %eax,%eax
  802398:	74 37                	je     8023d1 <tcpip_timeout+0x54>
      return ERR_MEM;
    }

    msg->type = TCPIP_MSG_TIMEOUT;
  80239a:	c7 00 03 00 00 00    	movl   $0x3,(%eax)
    msg->msg.tmo.msecs = msecs;
  8023a0:	8b 55 08             	mov    0x8(%ebp),%edx
  8023a3:	89 50 08             	mov    %edx,0x8(%eax)
    msg->msg.tmo.h = h;
  8023a6:	8b 55 0c             	mov    0xc(%ebp),%edx
  8023a9:	89 50 0c             	mov    %edx,0xc(%eax)
    msg->msg.tmo.arg = arg;
  8023ac:	8b 55 10             	mov    0x10(%ebp),%edx
  8023af:	89 50 10             	mov    %edx,0x10(%eax)
    sys_mbox_post(mbox, msg);
  8023b2:	83 ec 08             	sub    $0x8,%esp
  8023b5:	50                   	push   %eax
  8023b6:	ff 35 00 40 81 00    	pushl  0x814000
  8023bc:	e8 18 7e 00 00       	call   80a1d9 <sys_mbox_post>
    return ERR_OK;
  8023c1:	83 c4 10             	add    $0x10,%esp
  8023c4:	b8 00 00 00 00       	mov    $0x0,%eax
  8023c9:	eb 0b                	jmp    8023d6 <tcpip_timeout+0x59>
  }
  return ERR_VAL;
  8023cb:	b8 f7 ff ff ff       	mov    $0xfffffff7,%eax
}
  8023d0:	c3                   	ret    
  struct tcpip_msg *msg;

  if (mbox != SYS_MBOX_NULL) {
    msg = memp_malloc(MEMP_TCPIP_MSG_API);
    if (msg == NULL) {
      return ERR_MEM;
  8023d1:	b8 ff ff ff ff       	mov    $0xffffffff,%eax
    msg->msg.tmo.arg = arg;
    sys_mbox_post(mbox, msg);
    return ERR_OK;
  }
  return ERR_VAL;
}
  8023d6:	c9                   	leave  
  8023d7:	c3                   	ret    

008023d8 <tcpip_apimsg>:
 * @param apimsg a struct containing the function to call and its parameters
 * @return ERR_OK if the function was called, another err_t if not
 */
err_t
tcpip_apimsg(struct api_msg *apimsg)
{
  8023d8:	55                   	push   %ebp
  8023d9:	89 e5                	mov    %esp,%ebp
  8023db:	53                   	push   %ebx
  8023dc:	83 ec 24             	sub    $0x24,%esp
  8023df:	8b 5d 08             	mov    0x8(%ebp),%ebx
  struct tcpip_msg msg;
  
  if (mbox != SYS_MBOX_NULL) {
  8023e2:	a1 00 40 81 00       	mov    0x814000,%eax
  8023e7:	83 f8 ff             	cmp    $0xffffffff,%eax
  8023ea:	74 31                	je     80241d <tcpip_apimsg+0x45>
    msg.type = TCPIP_MSG_API;
  8023ec:	c7 45 e4 00 00 00 00 	movl   $0x0,-0x1c(%ebp)
    msg.msg.apimsg = apimsg;
  8023f3:	89 5d ec             	mov    %ebx,-0x14(%ebp)
    sys_mbox_post(mbox, &msg);
  8023f6:	83 ec 08             	sub    $0x8,%esp
  8023f9:	8d 55 e4             	lea    -0x1c(%ebp),%edx
  8023fc:	52                   	push   %edx
  8023fd:	50                   	push   %eax
  8023fe:	e8 d6 7d 00 00       	call   80a1d9 <sys_mbox_post>
    sys_arch_sem_wait(apimsg->msg.conn->op_completed, 0);
  802403:	83 c4 08             	add    $0x8,%esp
  802406:	6a 00                	push   $0x0
  802408:	8b 43 04             	mov    0x4(%ebx),%eax
  80240b:	ff 70 10             	pushl  0x10(%eax)
  80240e:	e8 f6 7b 00 00       	call   80a009 <sys_arch_sem_wait>
    return ERR_OK;
  802413:	83 c4 10             	add    $0x10,%esp
  802416:	b8 00 00 00 00       	mov    $0x0,%eax
  80241b:	eb 05                	jmp    802422 <tcpip_apimsg+0x4a>
  }
  return ERR_VAL;
  80241d:	b8 f7 ff ff ff       	mov    $0xfffffff7,%eax
}
  802422:	8b 5d fc             	mov    -0x4(%ebp),%ebx
  802425:	c9                   	leave  
  802426:	c3                   	ret    

00802427 <tcpip_init>:
 * @param initfunc a function to call when tcpip_thread is running and finished initializing
 * @param arg argument to pass to initfunc
 */
void
tcpip_init(void (* initfunc)(void *), void *arg)
{
  802427:	55                   	push   %ebp
  802428:	89 e5                	mov    %esp,%ebp
  80242a:	83 ec 08             	sub    $0x8,%esp
  lwip_init();
  80242d:	e8 6f 03 00 00       	call   8027a1 <lwip_init>

  tcpip_init_done = initfunc;
  802432:	8b 45 08             	mov    0x8(%ebp),%eax
  802435:	a3 48 53 81 00       	mov    %eax,0x815348
  tcpip_init_done_arg = arg;
  80243a:	8b 45 0c             	mov    0xc(%ebp),%eax
  80243d:	a3 44 53 81 00       	mov    %eax,0x815344
  mbox = sys_mbox_new(TCPIP_MBOX_SIZE);
  802442:	83 ec 0c             	sub    $0xc,%esp
  802445:	6a 00                	push   $0x0
  802447:	e8 4c 7a 00 00       	call   809e98 <sys_mbox_new>
  80244c:	a3 00 40 81 00       	mov    %eax,0x814000
#if LWIP_TCPIP_CORE_LOCKING
  lock_tcpip_core = sys_sem_new(1);
#endif /* LWIP_TCPIP_CORE_LOCKING */

  sys_thread_new(TCPIP_THREAD_NAME, tcpip_thread, NULL, TCPIP_THREAD_STACKSIZE, TCPIP_THREAD_PRIO);
  802451:	c7 04 24 01 00 00 00 	movl   $0x1,(%esp)
  802458:	6a 00                	push   $0x0
  80245a:	6a 00                	push   $0x0
  80245c:	68 4c 20 80 00       	push   $0x80204c
  802461:	68 5c 10 81 00       	push   $0x81105c
  802466:	e8 9f 7e 00 00       	call   80a30a <sys_thread_new>
  80246b:	83 c4 20             	add    $0x20,%esp
}
  80246e:	c9                   	leave  
  80246f:	c3                   	ret    

00802470 <pbuf_free_callback>:
 * @param p The pbuf (chain) to be dereferenced.
 * @return ERR_OK if callback could be enqueued, an err_t if not
 */
err_t
pbuf_free_callback(struct pbuf *p)
{
  802470:	55                   	push   %ebp
  802471:	89 e5                	mov    %esp,%ebp
  802473:	83 ec 0c             	sub    $0xc,%esp
  return tcpip_callback_with_block(pbuf_free_int, p, 0);
  802476:	6a 00                	push   $0x0
  802478:	ff 75 08             	pushl  0x8(%ebp)
  80247b:	68 26 22 80 00       	push   $0x802226
  802480:	e8 65 fe ff ff       	call   8022ea <tcpip_callback_with_block>
}
  802485:	c9                   	leave  
  802486:	c3                   	ret    

00802487 <mem_free_callback>:
 * @param m the heap memory to free
 * @return ERR_OK if callback could be enqueued, an err_t if not
 */
err_t
mem_free_callback(void *m)
{
  802487:	55                   	push   %ebp
  802488:	89 e5                	mov    %esp,%ebp
  80248a:	83 ec 0c             	sub    $0xc,%esp
  return tcpip_callback_with_block(mem_free, m, 0);
  80248d:	6a 00                	push   $0x0
  80248f:	ff 75 08             	pushl  0x8(%ebp)
  802492:	68 5d 3f 80 00       	push   $0x803f5d
  802497:	e8 4e fe ff ff       	call   8022ea <tcpip_callback_with_block>
}
  80249c:	c9                   	leave  
  80249d:	c3                   	ret    

0080249e <netbuf_new>:
 * @return a pointer to a new netbuf
 *         NULL on lack of memory
 */
struct
netbuf *netbuf_new(void)
{
  80249e:	55                   	push   %ebp
  80249f:	89 e5                	mov    %esp,%ebp
  8024a1:	83 ec 14             	sub    $0x14,%esp
  struct netbuf *buf;

  buf = memp_malloc(MEMP_NETBUF);
  8024a4:	6a 06                	push   $0x6
  8024a6:	e8 7b 1f 00 00       	call   804426 <memp_malloc>
  if (buf != NULL) {
  8024ab:	83 c4 10             	add    $0x10,%esp
  8024ae:	85 c0                	test   %eax,%eax
  8024b0:	74 14                	je     8024c6 <netbuf_new+0x28>
    buf->p = NULL;
  8024b2:	c7 00 00 00 00 00    	movl   $0x0,(%eax)
    buf->ptr = NULL;
  8024b8:	c7 40 04 00 00 00 00 	movl   $0x0,0x4(%eax)
    buf->addr = NULL;
  8024bf:	c7 40 08 00 00 00 00 	movl   $0x0,0x8(%eax)
    return buf;
  } else {
    return NULL;
  }
}
  8024c6:	c9                   	leave  
  8024c7:	c3                   	ret    

008024c8 <netbuf_delete>:
 *
 * @param buf pointer to a netbuf allocated by netbuf_new()
 */
void
netbuf_delete(struct netbuf *buf)
{
  8024c8:	55                   	push   %ebp
  8024c9:	89 e5                	mov    %esp,%ebp
  8024cb:	53                   	push   %ebx
  8024cc:	83 ec 04             	sub    $0x4,%esp
  8024cf:	8b 5d 08             	mov    0x8(%ebp),%ebx
  if (buf != NULL) {
  8024d2:	85 db                	test   %ebx,%ebx
  8024d4:	74 2d                	je     802503 <netbuf_delete+0x3b>
    if (buf->p != NULL) {
  8024d6:	8b 03                	mov    (%ebx),%eax
  8024d8:	85 c0                	test   %eax,%eax
  8024da:	74 19                	je     8024f5 <netbuf_delete+0x2d>
      pbuf_free(buf->p);
  8024dc:	83 ec 0c             	sub    $0xc,%esp
  8024df:	50                   	push   %eax
  8024e0:	e8 0a 23 00 00       	call   8047ef <pbuf_free>
      buf->p = buf->ptr = NULL;
  8024e5:	c7 43 04 00 00 00 00 	movl   $0x0,0x4(%ebx)
  8024ec:	c7 03 00 00 00 00    	movl   $0x0,(%ebx)
  8024f2:	83 c4 10             	add    $0x10,%esp
    }
    memp_free(MEMP_NETBUF, buf);
  8024f5:	83 ec 08             	sub    $0x8,%esp
  8024f8:	53                   	push   %ebx
  8024f9:	6a 06                	push   $0x6
  8024fb:	e8 7c 1f 00 00       	call   80447c <memp_free>
  802500:	83 c4 10             	add    $0x10,%esp
  }
}
  802503:	8b 5d fc             	mov    -0x4(%ebp),%ebx
  802506:	c9                   	leave  
  802507:	c3                   	ret    

00802508 <netbuf_alloc>:
 * @return pointer to the allocated memory
 *         NULL if no memory could be allocated
 */
void *
netbuf_alloc(struct netbuf *buf, u16_t size)
{
  802508:	55                   	push   %ebp
  802509:	89 e5                	mov    %esp,%ebp
  80250b:	56                   	push   %esi
  80250c:	53                   	push   %ebx
  80250d:	8b 5d 08             	mov    0x8(%ebp),%ebx
  802510:	8b 75 0c             	mov    0xc(%ebp),%esi
  LWIP_ERROR("netbuf_alloc: invalid buf", (buf != NULL), return NULL;);
  802513:	85 db                	test   %ebx,%ebx
  802515:	75 14                	jne    80252b <netbuf_alloc+0x23>
  802517:	83 ec 04             	sub    $0x4,%esp
  80251a:	68 69 10 81 00       	push   $0x811069
  80251f:	6a 63                	push   $0x63
  802521:	68 83 10 81 00       	push   $0x811083
  802526:	e8 b6 be 00 00       	call   80e3e1 <_panic>

  /* Deallocate any previously allocated memory. */
  if (buf->p != NULL) {
  80252b:	8b 03                	mov    (%ebx),%eax
  80252d:	85 c0                	test   %eax,%eax
  80252f:	74 0c                	je     80253d <netbuf_alloc+0x35>
    pbuf_free(buf->p);
  802531:	83 ec 0c             	sub    $0xc,%esp
  802534:	50                   	push   %eax
  802535:	e8 b5 22 00 00       	call   8047ef <pbuf_free>
  80253a:	83 c4 10             	add    $0x10,%esp
  }
  buf->p = pbuf_alloc(PBUF_TRANSPORT, size, PBUF_RAM);
  80253d:	83 ec 04             	sub    $0x4,%esp
  802540:	6a 00                	push   $0x0
  802542:	0f b7 c6             	movzwl %si,%eax
  802545:	50                   	push   %eax
  802546:	6a 00                	push   $0x0
  802548:	e8 68 23 00 00       	call   8048b5 <pbuf_alloc>
  80254d:	89 03                	mov    %eax,(%ebx)
  if (buf->p == NULL) {
  80254f:	83 c4 10             	add    $0x10,%esp
  802552:	85 c0                	test   %eax,%eax
  802554:	74 22                	je     802578 <netbuf_alloc+0x70>
     return NULL;
  }
  LWIP_ASSERT("check that first pbuf can hold size",
  802556:	66 3b 70 0a          	cmp    0xa(%eax),%si
  80255a:	76 14                	jbe    802570 <netbuf_alloc+0x68>
  80255c:	83 ec 04             	sub    $0x4,%esp
  80255f:	68 50 11 81 00       	push   $0x811150
  802564:	6a 6e                	push   $0x6e
  802566:	68 83 10 81 00       	push   $0x811083
  80256b:	e8 71 be 00 00       	call   80e3e1 <_panic>
             (buf->p->len >= size));
  buf->ptr = buf->p;
  802570:	89 43 04             	mov    %eax,0x4(%ebx)
  return buf->p->payload;
  802573:	8b 40 04             	mov    0x4(%eax),%eax
  802576:	eb 05                	jmp    80257d <netbuf_alloc+0x75>
  if (buf->p != NULL) {
    pbuf_free(buf->p);
  }
  buf->p = pbuf_alloc(PBUF_TRANSPORT, size, PBUF_RAM);
  if (buf->p == NULL) {
     return NULL;
  802578:	b8 00 00 00 00       	mov    $0x0,%eax
  }
  LWIP_ASSERT("check that first pbuf can hold size",
             (buf->p->len >= size));
  buf->ptr = buf->p;
  return buf->p->payload;
}
  80257d:	8d 65 f8             	lea    -0x8(%ebp),%esp
  802580:	5b                   	pop    %ebx
  802581:	5e                   	pop    %esi
  802582:	5d                   	pop    %ebp
  802583:	c3                   	ret    

00802584 <netbuf_free>:
 *
 * @param buf pointer to the netbuf which contains the packet buffer to free
 */
void
netbuf_free(struct netbuf *buf)
{
  802584:	55                   	push   %ebp
  802585:	89 e5                	mov    %esp,%ebp
  802587:	53                   	push   %ebx
  802588:	83 ec 04             	sub    $0x4,%esp
  80258b:	8b 5d 08             	mov    0x8(%ebp),%ebx
  LWIP_ERROR("netbuf_free: invalid buf", (buf != NULL), return;);
  80258e:	85 db                	test   %ebx,%ebx
  802590:	75 14                	jne    8025a6 <netbuf_free+0x22>
  802592:	83 ec 04             	sub    $0x4,%esp
  802595:	68 99 10 81 00       	push   $0x811099
  80259a:	6a 7b                	push   $0x7b
  80259c:	68 83 10 81 00       	push   $0x811083
  8025a1:	e8 3b be 00 00       	call   80e3e1 <_panic>
  if (buf->p != NULL) {
  8025a6:	8b 03                	mov    (%ebx),%eax
  8025a8:	85 c0                	test   %eax,%eax
  8025aa:	74 0c                	je     8025b8 <netbuf_free+0x34>
    pbuf_free(buf->p);
  8025ac:	83 ec 0c             	sub    $0xc,%esp
  8025af:	50                   	push   %eax
  8025b0:	e8 3a 22 00 00       	call   8047ef <pbuf_free>
  8025b5:	83 c4 10             	add    $0x10,%esp
  }
  buf->p = buf->ptr = NULL;
  8025b8:	c7 43 04 00 00 00 00 	movl   $0x0,0x4(%ebx)
  8025bf:	c7 03 00 00 00 00    	movl   $0x0,(%ebx)
}
  8025c5:	8b 5d fc             	mov    -0x4(%ebp),%ebx
  8025c8:	c9                   	leave  
  8025c9:	c3                   	ret    

008025ca <netbuf_ref>:
 * @return ERR_OK if data is referenced
 *         ERR_MEM if data couldn't be referenced due to lack of memory
 */
err_t
netbuf_ref(struct netbuf *buf, const void *dataptr, u16_t size)
{
  8025ca:	55                   	push   %ebp
  8025cb:	89 e5                	mov    %esp,%ebp
  8025cd:	56                   	push   %esi
  8025ce:	53                   	push   %ebx
  8025cf:	8b 5d 08             	mov    0x8(%ebp),%ebx
  8025d2:	8b 75 10             	mov    0x10(%ebp),%esi
  LWIP_ERROR("netbuf_ref: invalid buf", (buf != NULL), return ERR_ARG;);
  8025d5:	85 db                	test   %ebx,%ebx
  8025d7:	75 17                	jne    8025f0 <netbuf_ref+0x26>
  8025d9:	83 ec 04             	sub    $0x4,%esp
  8025dc:	68 b2 10 81 00       	push   $0x8110b2
  8025e1:	68 8e 00 00 00       	push   $0x8e
  8025e6:	68 83 10 81 00       	push   $0x811083
  8025eb:	e8 f1 bd 00 00       	call   80e3e1 <_panic>
  if (buf->p != NULL) {
  8025f0:	8b 03                	mov    (%ebx),%eax
  8025f2:	85 c0                	test   %eax,%eax
  8025f4:	74 0c                	je     802602 <netbuf_ref+0x38>
    pbuf_free(buf->p);
  8025f6:	83 ec 0c             	sub    $0xc,%esp
  8025f9:	50                   	push   %eax
  8025fa:	e8 f0 21 00 00       	call   8047ef <pbuf_free>
  8025ff:	83 c4 10             	add    $0x10,%esp
  }
  buf->p = pbuf_alloc(PBUF_TRANSPORT, 0, PBUF_REF);
  802602:	83 ec 04             	sub    $0x4,%esp
  802605:	6a 02                	push   $0x2
  802607:	6a 00                	push   $0x0
  802609:	6a 00                	push   $0x0
  80260b:	e8 a5 22 00 00       	call   8048b5 <pbuf_alloc>
  802610:	89 03                	mov    %eax,(%ebx)
  if (buf->p == NULL) {
  802612:	83 c4 10             	add    $0x10,%esp
  802615:	85 c0                	test   %eax,%eax
  802617:	75 0e                	jne    802627 <netbuf_ref+0x5d>
    buf->ptr = NULL;
  802619:	c7 43 04 00 00 00 00 	movl   $0x0,0x4(%ebx)
    return ERR_MEM;
  802620:	b8 ff ff ff ff       	mov    $0xffffffff,%eax
  802625:	eb 1a                	jmp    802641 <netbuf_ref+0x77>
  }
  buf->p->payload = (void*)dataptr;
  802627:	8b 55 0c             	mov    0xc(%ebp),%edx
  80262a:	89 50 04             	mov    %edx,0x4(%eax)
  buf->p->len = buf->p->tot_len = size;
  80262d:	8b 03                	mov    (%ebx),%eax
  80262f:	66 89 70 08          	mov    %si,0x8(%eax)
  802633:	66 89 70 0a          	mov    %si,0xa(%eax)
  buf->ptr = buf->p;
  802637:	8b 03                	mov    (%ebx),%eax
  802639:	89 43 04             	mov    %eax,0x4(%ebx)
  return ERR_OK;
  80263c:	b8 00 00 00 00       	mov    $0x0,%eax
}
  802641:	8d 65 f8             	lea    -0x8(%ebp),%esp
  802644:	5b                   	pop    %ebx
  802645:	5e                   	pop    %esi
  802646:	5d                   	pop    %ebp
  802647:	c3                   	ret    

00802648 <netbuf_chain>:
 * @param head the first netbuf
 * @param tail netbuf to chain after head
 */
void
netbuf_chain(struct netbuf *head, struct netbuf *tail)
{
  802648:	55                   	push   %ebp
  802649:	89 e5                	mov    %esp,%ebp
  80264b:	56                   	push   %esi
  80264c:	53                   	push   %ebx
  80264d:	8b 5d 08             	mov    0x8(%ebp),%ebx
  802650:	8b 75 0c             	mov    0xc(%ebp),%esi
  LWIP_ERROR("netbuf_ref: invalid head", (head != NULL), return;);
  802653:	85 db                	test   %ebx,%ebx
  802655:	75 17                	jne    80266e <netbuf_chain+0x26>
  802657:	83 ec 04             	sub    $0x4,%esp
  80265a:	68 ca 10 81 00       	push   $0x8110ca
  80265f:	68 a6 00 00 00       	push   $0xa6
  802664:	68 83 10 81 00       	push   $0x811083
  802669:	e8 73 bd 00 00       	call   80e3e1 <_panic>
  LWIP_ERROR("netbuf_chain: invalid tail", (tail != NULL), return;);
  80266e:	85 f6                	test   %esi,%esi
  802670:	75 17                	jne    802689 <netbuf_chain+0x41>
  802672:	83 ec 04             	sub    $0x4,%esp
  802675:	68 e3 10 81 00       	push   $0x8110e3
  80267a:	68 a7 00 00 00       	push   $0xa7
  80267f:	68 83 10 81 00       	push   $0x811083
  802684:	e8 58 bd 00 00       	call   80e3e1 <_panic>
  pbuf_chain(head->p, tail->p);
  802689:	83 ec 08             	sub    $0x8,%esp
  80268c:	ff 36                	pushl  (%esi)
  80268e:	ff 33                	pushl  (%ebx)
  802690:	e8 41 26 00 00       	call   804cd6 <pbuf_chain>
  head->ptr = head->p;
  802695:	8b 03                	mov    (%ebx),%eax
  802697:	89 43 04             	mov    %eax,0x4(%ebx)
  memp_free(MEMP_NETBUF, tail);
  80269a:	83 c4 08             	add    $0x8,%esp
  80269d:	56                   	push   %esi
  80269e:	6a 06                	push   $0x6
  8026a0:	e8 d7 1d 00 00       	call   80447c <memp_free>
  8026a5:	83 c4 10             	add    $0x10,%esp
}
  8026a8:	8d 65 f8             	lea    -0x8(%ebp),%esp
  8026ab:	5b                   	pop    %ebx
  8026ac:	5e                   	pop    %esi
  8026ad:	5d                   	pop    %ebp
  8026ae:	c3                   	ret    

008026af <netbuf_data>:
 * @return ERR_OK if the information was retreived,
 *         ERR_BUF on error.
 */
err_t
netbuf_data(struct netbuf *buf, void **dataptr, u16_t *len)
{
  8026af:	55                   	push   %ebp
  8026b0:	89 e5                	mov    %esp,%ebp
  8026b2:	53                   	push   %ebx
  8026b3:	83 ec 04             	sub    $0x4,%esp
  8026b6:	8b 45 08             	mov    0x8(%ebp),%eax
  8026b9:	8b 4d 0c             	mov    0xc(%ebp),%ecx
  8026bc:	8b 55 10             	mov    0x10(%ebp),%edx
  LWIP_ERROR("netbuf_data: invalid buf", (buf != NULL), return ERR_ARG;);
  8026bf:	85 c0                	test   %eax,%eax
  8026c1:	75 17                	jne    8026da <netbuf_data+0x2b>
  8026c3:	83 ec 04             	sub    $0x4,%esp
  8026c6:	68 fe 10 81 00       	push   $0x8110fe
  8026cb:	68 b9 00 00 00       	push   $0xb9
  8026d0:	68 83 10 81 00       	push   $0x811083
  8026d5:	e8 07 bd 00 00       	call   80e3e1 <_panic>
  LWIP_ERROR("netbuf_data: invalid dataptr", (dataptr != NULL), return ERR_ARG;);
  8026da:	85 c9                	test   %ecx,%ecx
  8026dc:	75 17                	jne    8026f5 <netbuf_data+0x46>
  8026de:	83 ec 04             	sub    $0x4,%esp
  8026e1:	68 17 11 81 00       	push   $0x811117
  8026e6:	68 ba 00 00 00       	push   $0xba
  8026eb:	68 83 10 81 00       	push   $0x811083
  8026f0:	e8 ec bc 00 00       	call   80e3e1 <_panic>
  LWIP_ERROR("netbuf_data: invalid len", (len != NULL), return ERR_ARG;);
  8026f5:	85 d2                	test   %edx,%edx
  8026f7:	75 17                	jne    802710 <netbuf_data+0x61>
  8026f9:	83 ec 04             	sub    $0x4,%esp
  8026fc:	68 34 11 81 00       	push   $0x811134
  802701:	68 bb 00 00 00       	push   $0xbb
  802706:	68 83 10 81 00       	push   $0x811083
  80270b:	e8 d1 bc 00 00       	call   80e3e1 <_panic>

  if (buf->ptr == NULL) {
  802710:	8b 58 04             	mov    0x4(%eax),%ebx
  802713:	85 db                	test   %ebx,%ebx
  802715:	74 16                	je     80272d <netbuf_data+0x7e>
    return ERR_BUF;
  }
  *dataptr = buf->ptr->payload;
  802717:	8b 5b 04             	mov    0x4(%ebx),%ebx
  80271a:	89 19                	mov    %ebx,(%ecx)
  *len = buf->ptr->len;
  80271c:	8b 40 04             	mov    0x4(%eax),%eax
  80271f:	0f b7 40 0a          	movzwl 0xa(%eax),%eax
  802723:	66 89 02             	mov    %ax,(%edx)
  return ERR_OK;
  802726:	b8 00 00 00 00       	mov    $0x0,%eax
  80272b:	eb 05                	jmp    802732 <netbuf_data+0x83>
  LWIP_ERROR("netbuf_data: invalid buf", (buf != NULL), return ERR_ARG;);
  LWIP_ERROR("netbuf_data: invalid dataptr", (dataptr != NULL), return ERR_ARG;);
  LWIP_ERROR("netbuf_data: invalid len", (len != NULL), return ERR_ARG;);

  if (buf->ptr == NULL) {
    return ERR_BUF;
  80272d:	b8 fe ff ff ff       	mov    $0xfffffffe,%eax
  }
  *dataptr = buf->ptr->payload;
  *len = buf->ptr->len;
  return ERR_OK;
}
  802732:	8b 5d fc             	mov    -0x4(%ebp),%ebx
  802735:	c9                   	leave  
  802736:	c3                   	ret    

00802737 <netbuf_next>:
 *         1  if moved to the next part but now there is no next part
 *         0  if moved to the next part and there are still more parts
 */
s8_t
netbuf_next(struct netbuf *buf)
{
  802737:	55                   	push   %ebp
  802738:	89 e5                	mov    %esp,%ebp
  80273a:	83 ec 08             	sub    $0x8,%esp
  80273d:	8b 45 08             	mov    0x8(%ebp),%eax
  LWIP_ERROR("netbuf_free: invalid buf", (buf != NULL), return -1;);
  802740:	85 c0                	test   %eax,%eax
  802742:	75 17                	jne    80275b <netbuf_next+0x24>
  802744:	83 ec 04             	sub    $0x4,%esp
  802747:	68 99 10 81 00       	push   $0x811099
  80274c:	68 d2 00 00 00       	push   $0xd2
  802751:	68 83 10 81 00       	push   $0x811083
  802756:	e8 86 bc 00 00       	call   80e3e1 <_panic>
  if (buf->ptr->next == NULL) {
  80275b:	8b 50 04             	mov    0x4(%eax),%edx
  80275e:	8b 12                	mov    (%edx),%edx
  802760:	85 d2                	test   %edx,%edx
  802762:	74 0b                	je     80276f <netbuf_next+0x38>
    return -1;
  }
  buf->ptr = buf->ptr->next;
  802764:	89 50 04             	mov    %edx,0x4(%eax)
  if (buf->ptr->next == NULL) {
  802767:	83 3a 00             	cmpl   $0x0,(%edx)
  80276a:	0f 94 c0             	sete   %al
  80276d:	eb 05                	jmp    802774 <netbuf_next+0x3d>
s8_t
netbuf_next(struct netbuf *buf)
{
  LWIP_ERROR("netbuf_free: invalid buf", (buf != NULL), return -1;);
  if (buf->ptr->next == NULL) {
    return -1;
  80276f:	b8 ff ff ff ff       	mov    $0xffffffff,%eax
  buf->ptr = buf->ptr->next;
  if (buf->ptr->next == NULL) {
    return 1;
  }
  return 0;
}
  802774:	c9                   	leave  
  802775:	c3                   	ret    

00802776 <netbuf_first>:
 *
 * @param buf the netbuf to modify
 */
void
netbuf_first(struct netbuf *buf)
{
  802776:	55                   	push   %ebp
  802777:	89 e5                	mov    %esp,%ebp
  802779:	83 ec 08             	sub    $0x8,%esp
  80277c:	8b 45 08             	mov    0x8(%ebp),%eax
  LWIP_ERROR("netbuf_free: invalid buf", (buf != NULL), return;);
  80277f:	85 c0                	test   %eax,%eax
  802781:	75 17                	jne    80279a <netbuf_first+0x24>
  802783:	83 ec 04             	sub    $0x4,%esp
  802786:	68 99 10 81 00       	push   $0x811099
  80278b:	68 e7 00 00 00       	push   $0xe7
  802790:	68 83 10 81 00       	push   $0x811083
  802795:	e8 47 bc 00 00       	call   80e3e1 <_panic>
  buf->ptr = buf->p;
  80279a:	8b 10                	mov    (%eax),%edx
  80279c:	89 50 04             	mov    %edx,0x4(%eax)
}
  80279f:	c9                   	leave  
  8027a0:	c3                   	ret    

008027a1 <lwip_init>:
/**
 * Perform Sanity check of user-configurable values, and initialize all modules.
 */
void
lwip_init(void)
{
  8027a1:	55                   	push   %ebp
  8027a2:	89 e5                	mov    %esp,%ebp
  8027a4:	83 ec 08             	sub    $0x8,%esp
  /* Sanity check user-configurable values */
  lwip_sanity_check();

  /* Modules initialization */
  stats_init();
  sys_init();
  8027a7:	e8 a9 74 00 00       	call   809c55 <sys_init>
  mem_init();
  8027ac:	e8 46 17 00 00       	call   803ef7 <mem_init>
  memp_init();
  8027b1:	e8 18 1c 00 00       	call   8043ce <memp_init>
  pbuf_init();
  netif_init();
#if LWIP_SOCKET
  lwip_socket_init();
  8027b6:	e8 c9 e6 ff ff       	call   800e84 <lwip_socket_init>
  igmp_init();
#endif /* LWIP_IGMP */
#if LWIP_DNS
  dns_init();
#endif /* LWIP_DNS */
}
  8027bb:	c9                   	leave  
  8027bc:	c3                   	ret    

008027bd <dhcp_set_state>:
 *
 * TODO: we might also want to reset the timeout here?
 */
static void
dhcp_set_state(struct dhcp *dhcp, u8_t new_state)
{
  8027bd:	55                   	push   %ebp
  8027be:	89 e5                	mov    %esp,%ebp
  if (new_state != dhcp->state) {
  8027c0:	38 10                	cmp    %dl,(%eax)
  8027c2:	74 06                	je     8027ca <dhcp_set_state+0xd>
    dhcp->state = new_state;
  8027c4:	88 10                	mov    %dl,(%eax)
    dhcp->tries = 0;
  8027c6:	c6 40 01 00          	movb   $0x0,0x1(%eax)
  }
}
  8027ca:	5d                   	pop    %ebp
  8027cb:	c3                   	ret    

008027cc <dhcp_get_option_ptr>:
 *
 * @return a byte offset into the UDP message where the option was found, or
 * zero if the given option was not found.
 */
static u8_t *dhcp_get_option_ptr(struct dhcp *dhcp, u8_t option_type)
{
  8027cc:	55                   	push   %ebp
  8027cd:	89 e5                	mov    %esp,%ebp
  8027cf:	57                   	push   %edi
  8027d0:	56                   	push   %esi
  8027d1:	53                   	push   %ebx
  8027d2:	83 ec 08             	sub    $0x8,%esp
  8027d5:	89 45 ec             	mov    %eax,-0x14(%ebp)
  u8_t overload = DHCP_OVERLOAD_NONE;

  /* options available? */
  if ((dhcp->options_in != NULL) && (dhcp->options_in_len > 0)) {
  8027d8:	8b 70 14             	mov    0x14(%eax),%esi
  8027db:	85 f6                	test   %esi,%esi
  8027dd:	0f 84 d5 00 00 00    	je     8028b8 <dhcp_get_option_ptr+0xec>
  8027e3:	0f b7 78 18          	movzwl 0x18(%eax),%edi
  8027e7:	b9 00 00 00 00       	mov    $0x0,%ecx
  8027ec:	c6 45 f0 00          	movb   $0x0,-0x10(%ebp)
          offset += 1 + options[offset];
        }
      }
    }
  }
  return NULL;
  8027f0:	b8 00 00 00 00       	mov    $0x0,%eax
static u8_t *dhcp_get_option_ptr(struct dhcp *dhcp, u8_t option_type)
{
  u8_t overload = DHCP_OVERLOAD_NONE;

  /* options available? */
  if ((dhcp->options_in != NULL) && (dhcp->options_in_len > 0)) {
  8027f5:	66 85 ff             	test   %di,%di
  8027f8:	0f 84 d2 00 00 00    	je     8028d0 <dhcp_get_option_ptr+0x104>
  8027fe:	eb 2d                	jmp    80282d <dhcp_get_option_ptr+0x61>
    u16_t offset = 0;
    /* at least 1 byte to read and no end marker, then at least 3 bytes to read? */
    while ((offset < dhcp->options_in_len) && (options[offset] != DHCP_OPTION_END)) {
      /* LWIP_DEBUGF(DHCP_DEBUG, ("msg_offset=%"U16_F", q->len=%"U16_F, msg_offset, q->len)); */
      /* are the sname and/or file field overloaded with options? */
      if (options[offset] == DHCP_OPTION_OVERLOAD) {
  802800:	80 fb 34             	cmp    $0x34,%bl
  802803:	75 12                	jne    802817 <dhcp_get_option_ptr+0x4b>
        LWIP_DEBUGF(DHCP_DEBUG | LWIP_DBG_TRACE | 2, ("overloaded message detected\n"));
        /* skip option type and length */
        offset += 2;
  802805:	8d 41 02             	lea    0x2(%ecx),%eax
        overload = options[offset++];
  802808:	83 c1 03             	add    $0x3,%ecx
  80280b:	0f b7 c0             	movzwl %ax,%eax
  80280e:	0f b6 04 06          	movzbl (%esi,%eax,1),%eax
  802812:	88 45 f0             	mov    %al,-0x10(%ebp)
  802815:	eb 16                	jmp    80282d <dhcp_get_option_ptr+0x61>
      }
      /* requested option found */
      else if (options[offset] == option_type) {
  802817:	38 d3                	cmp    %dl,%bl
  802819:	0f 84 b1 00 00 00    	je     8028d0 <dhcp_get_option_ptr+0x104>
        return &options[offset];
      /* skip option */
      } else {
         LWIP_DEBUGF(DHCP_DEBUG, ("skipping option %"U16_F" in options\n", options[offset]));
        /* skip option type */
        offset++;
  80281f:	8d 41 01             	lea    0x1(%ecx),%eax
        /* skip option length, and then length bytes */
        offset += 1 + options[offset];
  802822:	0f b7 c0             	movzwl %ax,%eax
  802825:	0f b6 04 06          	movzbl (%esi,%eax,1),%eax
  802829:	8d 4c 01 02          	lea    0x2(%ecx,%eax,1),%ecx
  if ((dhcp->options_in != NULL) && (dhcp->options_in_len > 0)) {
    /* start with options field */
    u8_t *options = (u8_t *)dhcp->options_in;
    u16_t offset = 0;
    /* at least 1 byte to read and no end marker, then at least 3 bytes to read? */
    while ((offset < dhcp->options_in_len) && (options[offset] != DHCP_OPTION_END)) {
  80282d:	66 39 f9             	cmp    %di,%cx
  802830:	73 0d                	jae    80283f <dhcp_get_option_ptr+0x73>
  802832:	0f b7 c1             	movzwl %cx,%eax
  802835:	01 f0                	add    %esi,%eax
  802837:	0f b6 18             	movzbl (%eax),%ebx
  80283a:	80 fb ff             	cmp    $0xff,%bl
  80283d:	75 c1                	jne    802800 <dhcp_get_option_ptr+0x34>
        /* skip option length, and then length bytes */
        offset += 1 + options[offset];
      }
    }
    /* is this an overloaded message? */
    if (overload != DHCP_OVERLOAD_NONE) {
  80283f:	0f b6 45 f0          	movzbl -0x10(%ebp),%eax
  802843:	84 c0                	test   %al,%al
  802845:	74 78                	je     8028bf <dhcp_get_option_ptr+0xf3>
      u16_t field_len;
      if (overload == DHCP_OVERLOAD_FILE) {
  802847:	3c 01                	cmp    $0x1,%al
  802849:	75 10                	jne    80285b <dhcp_get_option_ptr+0x8f>
        LWIP_DEBUGF(DHCP_DEBUG | LWIP_DBG_TRACE | 1, ("overloaded file field\n"));
        options = (u8_t *)&dhcp->msg_in->file;
  80284b:	8b 45 ec             	mov    -0x14(%ebp),%eax
  80284e:	8b 58 10             	mov    0x10(%eax),%ebx
  802851:	83 c3 6c             	add    $0x6c,%ebx
        field_len = DHCP_FILE_LEN;
  802854:	be 80 00 00 00       	mov    $0x80,%esi
  802859:	eb 24                	jmp    80287f <dhcp_get_option_ptr+0xb3>
      } else if (overload == DHCP_OVERLOAD_SNAME) {
  80285b:	80 7d f0 02          	cmpb   $0x2,-0x10(%ebp)
  80285f:	75 10                	jne    802871 <dhcp_get_option_ptr+0xa5>
        LWIP_DEBUGF(DHCP_DEBUG | LWIP_DBG_TRACE | 1, ("overloaded sname field\n"));
        options = (u8_t *)&dhcp->msg_in->sname;
  802861:	8b 45 ec             	mov    -0x14(%ebp),%eax
  802864:	8b 58 10             	mov    0x10(%eax),%ebx
  802867:	83 c3 2c             	add    $0x2c,%ebx
        field_len = DHCP_SNAME_LEN;
  80286a:	be 40 00 00 00       	mov    $0x40,%esi
  80286f:	eb 0e                	jmp    80287f <dhcp_get_option_ptr+0xb3>
      /* TODO: check if else if () is necessary */
      } else {
        LWIP_DEBUGF(DHCP_DEBUG | LWIP_DBG_TRACE | 1, ("overloaded sname and file field\n"));
        options = (u8_t *)&dhcp->msg_in->sname;
  802871:	8b 45 ec             	mov    -0x14(%ebp),%eax
  802874:	8b 58 10             	mov    0x10(%eax),%ebx
  802877:	83 c3 2c             	add    $0x2c,%ebx
        field_len = DHCP_FILE_LEN + DHCP_SNAME_LEN;
  80287a:	be c0 00 00 00       	mov    $0xc0,%esi
      }
      offset = 0;
  80287f:	b9 00 00 00 00       	mov    $0x0,%ecx
  802884:	89 d7                	mov    %edx,%edi

      /* at least 1 byte to read and no end marker */
      while ((offset < field_len) && (options[offset] != DHCP_OPTION_END)) {
  802886:	eb 14                	jmp    80289c <dhcp_get_option_ptr+0xd0>
        if (options[offset] == option_type) {
  802888:	89 f8                	mov    %edi,%eax
  80288a:	38 d0                	cmp    %dl,%al
  80288c:	74 3f                	je     8028cd <dhcp_get_option_ptr+0x101>
          return &options[offset];
        /* skip option */
        } else {
          LWIP_DEBUGF(DHCP_DEBUG | LWIP_DBG_TRACE, ("skipping option %"U16_F"\n", options[offset]));
          /* skip option type */
          offset++;
  80288e:	8d 41 01             	lea    0x1(%ecx),%eax
          offset += 1 + options[offset];
  802891:	0f b7 c0             	movzwl %ax,%eax
  802894:	0f b6 04 03          	movzbl (%ebx,%eax,1),%eax
  802898:	8d 4c 01 02          	lea    0x2(%ecx,%eax,1),%ecx
        field_len = DHCP_FILE_LEN + DHCP_SNAME_LEN;
      }
      offset = 0;

      /* at least 1 byte to read and no end marker */
      while ((offset < field_len) && (options[offset] != DHCP_OPTION_END)) {
  80289c:	66 39 f1             	cmp    %si,%cx
  80289f:	73 25                	jae    8028c6 <dhcp_get_option_ptr+0xfa>
  8028a1:	0f b7 c1             	movzwl %cx,%eax
  8028a4:	01 d8                	add    %ebx,%eax
  8028a6:	89 45 f0             	mov    %eax,-0x10(%ebp)
  8028a9:	0f b6 10             	movzbl (%eax),%edx
  8028ac:	80 fa ff             	cmp    $0xff,%dl
  8028af:	75 d7                	jne    802888 <dhcp_get_option_ptr+0xbc>
          offset += 1 + options[offset];
        }
      }
    }
  }
  return NULL;
  8028b1:	b8 00 00 00 00       	mov    $0x0,%eax
  8028b6:	eb 18                	jmp    8028d0 <dhcp_get_option_ptr+0x104>
  8028b8:	b8 00 00 00 00       	mov    $0x0,%eax
  8028bd:	eb 11                	jmp    8028d0 <dhcp_get_option_ptr+0x104>
  8028bf:	b8 00 00 00 00       	mov    $0x0,%eax
